ARM GAS  C:\Users\JOSEAN~1\AppData\Local\Temp\cciZENHc.s 			page 1


   1              		.syntax unified
   2              		.cpu cortex-m3
   3              		.fpu softvfp
   4              		.eabi_attribute 20, 1
   5              		.eabi_attribute 21, 1
   6              		.eabi_attribute 23, 3
   7              		.eabi_attribute 24, 1
   8              		.eabi_attribute 25, 1
   9              		.eabi_attribute 26, 1
  10              		.eabi_attribute 30, 1
  11              		.eabi_attribute 34, 1
  12              		.eabi_attribute 18, 4
  13              		.thumb
  14              		.file	"main.c"
  15              		.text
  16              	.Ltext0:
  17              		.cfi_sections	.debug_frame
  18              		.section	.text.get_width,"ax",%progbits
  19              		.align	2
  20              		.global	get_width
  21              		.thumb
  22              		.thumb_func
  23              		.type	get_width, %function
  24              	get_width:
  25              	.LFB64:
  26              		.file 1 ".\\main.c"
   1:.\main.c      **** /* ========================================
   2:.\main.c      ****  *
   3:.\main.c      ****  * Copyright PSoC 3 LABBOOK
   4:.\main.c      ****  * All Rights Reserved
   5:.\main.c      ****  * UNPUBLISHED, LICENSED SOFTWARE.
   6:.\main.c      ****  *
   7:.\main.c      ****  * CONFIDENTIAL AND PROPRIETARY INFORMATION BELONGING TO
   8:.\main.c      ****  * ADITYA YADAV
   9:.\main.c      ****  * ASHWATH KRISHNAN
  10:.\main.c      ****  * ========================================
  11:.\main.c      **** */
  12:.\main.c      **** #include <project.h>
  13:.\main.c      **** #include <stdio.h>
  14:.\main.c      **** #include <stdlib.h>
  15:.\main.c      **** #include <string.h>
  16:.\main.c      **** uint8 get_width(uint8 volt);
  17:.\main.c      **** void main()
  18:.\main.c      **** {
  19:.\main.c      **** uint8 Potential,Width,LCD_OutputString, contador,true,delay;
  20:.\main.c      ****     true =1;
  21:.\main.c      ****     contador =5;
  22:.\main.c      ****     delay = 200;
  23:.\main.c      ****  Clock_Enable();
  24:.\main.c      ****  PWM_Start();
  25:.\main.c      ****  ADC_Start();
  26:.\main.c      ****  LCD_Start();
  27:.\main.c      ****  LCD_Position(0,0);
  28:.\main.c      ****  LCD_PrintString("Servo Pos:");
  29:.\main.c      **** for(;;)
  30:.\main.c      ****  {
  31:.\main.c      ****  ADC_StartConvert();
ARM GAS  C:\Users\JOSEAN~1\AppData\Local\Temp\cciZENHc.s 			page 2


  32:.\main.c      ****  ADC_IsEndConversion(ADC_WAIT_FOR_RESULT);
  33:.\main.c      ****  Potential=ADC_GetResult8();
  34:.\main.c      ****  delay= get_width(Potential);
  35:.\main.c      **** if(contador>=5&contador<=25){
  36:.\main.c      ****     if( true==1){
  37:.\main.c      ****         Width= contador++;
  38:.\main.c      ****         CyDelay(delay*10);
  39:.\main.c      ****     }
  40:.\main.c      ****     else{
  41:.\main.c      ****         Width= contador--;
  42:.\main.c      ****         CyDelay(delay*10);
  43:.\main.c      ****     }
  44:.\main.c      **** }
  45:.\main.c      **** else if (contador>25){
  46:.\main.c      ****     true=0;
  47:.\main.c      ****     contador--;
  48:.\main.c      **** }
  49:.\main.c      **** else{
  50:.\main.c      ****     true=1;
  51:.\main.c      ****     contador++;
  52:.\main.c      **** }
  53:.\main.c      **** 
  54:.\main.c      ****  if((Width >9)&( Width <20)) LCD_OutputString= Width +6;
  55:.\main.c      ****  else if (Width >19) LCD_OutputString= Width +12;
  56:.\main.c      ****  else LCD_OutputString= Width;
  57:.\main.c      **** 
  58:.\main.c      ****  LCD_Position(0,10);
  59:.\main.c      ****  LCD_PrintInt8(LCD_OutputString);
  60:.\main.c      ****  PWM_WriteCompare(Width);
  61:.\main.c      **** 
  62:.\main.c      ****  }
  63:.\main.c      **** }
  64:.\main.c      **** uint8 get_width(uint8 volt)
  65:.\main.c      **** {
  27              		.loc 1 65 0
  28              		.cfi_startproc
  29              		@ args = 0, pretend = 0, frame = 0
  30              		@ frame_needed = 0, uses_anonymous_args = 0
  31              		@ link register save eliminated.
  32              	.LVL0:
  66:.\main.c      **** if (volt<0x0C) return 5; //12 0x0C
  33              		.loc 1 66 0
  34 0000 0B28     		cmp	r0, #11
  35 0002 28D9     		bls	.L3
  67:.\main.c      **** else if (volt<0x19) return 6; //25 0x19
  36              		.loc 1 67 0
  37 0004 1828     		cmp	r0, #24
  38 0006 28D9     		bls	.L4
  68:.\main.c      **** else if (volt<0x26) return 7; //38 0x26 
  39              		.loc 1 68 0
  40 0008 2528     		cmp	r0, #37
  41 000a 28D9     		bls	.L5
  69:.\main.c      **** else if (volt<0x32) return 8; //50 0x32
  42              		.loc 1 69 0
  43 000c 3128     		cmp	r0, #49
  44 000e 28D9     		bls	.L6
  70:.\main.c      **** else if (volt<0x3e) return 9; //62 0x3e
ARM GAS  C:\Users\JOSEAN~1\AppData\Local\Temp\cciZENHc.s 			page 3


  45              		.loc 1 70 0
  46 0010 3D28     		cmp	r0, #61
  47 0012 28D9     		bls	.L7
  71:.\main.c      **** else if (volt<0x4B) return 10; //75 0x4b
  48              		.loc 1 71 0
  49 0014 4A28     		cmp	r0, #74
  50 0016 28D9     		bls	.L8
  72:.\main.c      **** else if (volt<0x57) return 11; //87 0x57
  51              		.loc 1 72 0
  52 0018 5628     		cmp	r0, #86
  53 001a 28D9     		bls	.L9
  73:.\main.c      **** else if (volt<0x64) return 12; //100 0x64
  54              		.loc 1 73 0
  55 001c 6328     		cmp	r0, #99
  56 001e 28D9     		bls	.L10
  74:.\main.c      **** else if (volt<0x70) return 13; //112 0x70
  57              		.loc 1 74 0
  58 0020 6F28     		cmp	r0, #111
  59 0022 28D9     		bls	.L11
  75:.\main.c      **** else if (volt<0x7D) return 14; //125 0x7d
  60              		.loc 1 75 0
  61 0024 7C28     		cmp	r0, #124
  62 0026 28D9     		bls	.L12
  76:.\main.c      **** else if (volt<0x89) return 15; //137 0x89
  63              		.loc 1 76 0
  64 0028 8828     		cmp	r0, #136
  65 002a 28D9     		bls	.L13
  77:.\main.c      **** else if (volt<0x96) return 16; //150 0x96
  66              		.loc 1 77 0
  67 002c 9528     		cmp	r0, #149
  68 002e 28D9     		bls	.L14
  78:.\main.c      **** else if (volt<0xA2) return 17; //162 0xA2
  69              		.loc 1 78 0
  70 0030 A128     		cmp	r0, #161
  71 0032 28D9     		bls	.L15
  79:.\main.c      **** else if (volt<0xAF) return 18; //175 0xAF
  72              		.loc 1 79 0
  73 0034 AE28     		cmp	r0, #174
  74 0036 28D9     		bls	.L16
  80:.\main.c      **** else if (volt<0xBB) return 19; //187 0xBB
  75              		.loc 1 80 0
  76 0038 BA28     		cmp	r0, #186
  77 003a 28D9     		bls	.L17
  81:.\main.c      **** else if (volt<0xC8) return 20; //200 0xC8
  78              		.loc 1 81 0
  79 003c C728     		cmp	r0, #199
  80 003e 28D9     		bls	.L18
  82:.\main.c      **** else if (volt<0xD4) return 21; //212 0xD4
  81              		.loc 1 82 0
  82 0040 D328     		cmp	r0, #211
  83 0042 28D9     		bls	.L19
  83:.\main.c      **** else if (volt<0xE1) return 22; //225 0xE1
  84              		.loc 1 83 0
  85 0044 E028     		cmp	r0, #224
  86 0046 28D9     		bls	.L20
  84:.\main.c      **** else if (volt<0xED) return 23; //237 0xED
  87              		.loc 1 84 0
ARM GAS  C:\Users\JOSEAN~1\AppData\Local\Temp\cciZENHc.s 			page 4


  88 0048 EC28     		cmp	r0, #236
  89 004a 28D9     		bls	.L21
  85:.\main.c      **** else if (volt<0xFA) return 24; //250 0xFA
  90              		.loc 1 85 0
  91 004c F928     		cmp	r0, #249
  92 004e 28D9     		bls	.L22
  86:.\main.c      **** else if (volt>0xFA) return 25; //250 0xFA
  93              		.loc 1 86 0
  94 0050 FA28     		cmp	r0, #250
  95 0052 28D8     		bhi	.L23
  96              	.LVL1:
  97 0054 7047     		bx	lr
  98              	.LVL2:
  99              	.L3:
  66:.\main.c      **** else if (volt<0x19) return 6; //25 0x19
 100              		.loc 1 66 0
 101 0056 0520     		movs	r0, #5
 102              	.LVL3:
 103 0058 7047     		bx	lr
 104              	.LVL4:
 105              	.L4:
  67:.\main.c      **** else if (volt<0x26) return 7; //38 0x26 
 106              		.loc 1 67 0
 107 005a 0620     		movs	r0, #6
 108              	.LVL5:
 109 005c 7047     		bx	lr
 110              	.LVL6:
 111              	.L5:
  68:.\main.c      **** else if (volt<0x32) return 8; //50 0x32
 112              		.loc 1 68 0
 113 005e 0720     		movs	r0, #7
 114              	.LVL7:
 115 0060 7047     		bx	lr
 116              	.LVL8:
 117              	.L6:
  69:.\main.c      **** else if (volt<0x3e) return 9; //62 0x3e
 118              		.loc 1 69 0
 119 0062 0820     		movs	r0, #8
 120              	.LVL9:
 121 0064 7047     		bx	lr
 122              	.LVL10:
 123              	.L7:
  70:.\main.c      **** else if (volt<0x4B) return 10; //75 0x4b
 124              		.loc 1 70 0
 125 0066 0920     		movs	r0, #9
 126              	.LVL11:
 127 0068 7047     		bx	lr
 128              	.LVL12:
 129              	.L8:
  71:.\main.c      **** else if (volt<0x57) return 11; //87 0x57
 130              		.loc 1 71 0
 131 006a 0A20     		movs	r0, #10
 132              	.LVL13:
 133 006c 7047     		bx	lr
 134              	.LVL14:
 135              	.L9:
  72:.\main.c      **** else if (volt<0x64) return 12; //100 0x64
ARM GAS  C:\Users\JOSEAN~1\AppData\Local\Temp\cciZENHc.s 			page 5


 136              		.loc 1 72 0
 137 006e 0B20     		movs	r0, #11
 138              	.LVL15:
 139 0070 7047     		bx	lr
 140              	.LVL16:
 141              	.L10:
  73:.\main.c      **** else if (volt<0x70) return 13; //112 0x70
 142              		.loc 1 73 0
 143 0072 0C20     		movs	r0, #12
 144              	.LVL17:
 145 0074 7047     		bx	lr
 146              	.LVL18:
 147              	.L11:
  74:.\main.c      **** else if (volt<0x7D) return 14; //125 0x7d
 148              		.loc 1 74 0
 149 0076 0D20     		movs	r0, #13
 150              	.LVL19:
 151 0078 7047     		bx	lr
 152              	.LVL20:
 153              	.L12:
  75:.\main.c      **** else if (volt<0x89) return 15; //137 0x89
 154              		.loc 1 75 0
 155 007a 0E20     		movs	r0, #14
 156              	.LVL21:
 157 007c 7047     		bx	lr
 158              	.LVL22:
 159              	.L13:
  76:.\main.c      **** else if (volt<0x96) return 16; //150 0x96
 160              		.loc 1 76 0
 161 007e 0F20     		movs	r0, #15
 162              	.LVL23:
 163 0080 7047     		bx	lr
 164              	.LVL24:
 165              	.L14:
  77:.\main.c      **** else if (volt<0xA2) return 17; //162 0xA2
 166              		.loc 1 77 0
 167 0082 1020     		movs	r0, #16
 168              	.LVL25:
 169 0084 7047     		bx	lr
 170              	.LVL26:
 171              	.L15:
  78:.\main.c      **** else if (volt<0xAF) return 18; //175 0xAF
 172              		.loc 1 78 0
 173 0086 1120     		movs	r0, #17
 174              	.LVL27:
 175 0088 7047     		bx	lr
 176              	.LVL28:
 177              	.L16:
  79:.\main.c      **** else if (volt<0xBB) return 19; //187 0xBB
 178              		.loc 1 79 0
 179 008a 1220     		movs	r0, #18
 180              	.LVL29:
 181 008c 7047     		bx	lr
 182              	.LVL30:
 183              	.L17:
  80:.\main.c      **** else if (volt<0xC8) return 20; //200 0xC8
 184              		.loc 1 80 0
ARM GAS  C:\Users\JOSEAN~1\AppData\Local\Temp\cciZENHc.s 			page 6


 185 008e 1320     		movs	r0, #19
 186              	.LVL31:
 187 0090 7047     		bx	lr
 188              	.LVL32:
 189              	.L18:
  81:.\main.c      **** else if (volt<0xD4) return 21; //212 0xD4
 190              		.loc 1 81 0
 191 0092 1420     		movs	r0, #20
 192              	.LVL33:
 193 0094 7047     		bx	lr
 194              	.LVL34:
 195              	.L19:
  82:.\main.c      **** else if (volt<0xE1) return 22; //225 0xE1
 196              		.loc 1 82 0
 197 0096 1520     		movs	r0, #21
 198              	.LVL35:
 199 0098 7047     		bx	lr
 200              	.LVL36:
 201              	.L20:
  83:.\main.c      **** else if (volt<0xED) return 23; //237 0xED
 202              		.loc 1 83 0
 203 009a 1620     		movs	r0, #22
 204              	.LVL37:
 205 009c 7047     		bx	lr
 206              	.LVL38:
 207              	.L21:
  84:.\main.c      **** else if (volt<0xFA) return 24; //250 0xFA
 208              		.loc 1 84 0
 209 009e 1720     		movs	r0, #23
 210              	.LVL39:
 211 00a0 7047     		bx	lr
 212              	.LVL40:
 213              	.L22:
  85:.\main.c      **** else if (volt>0xFA) return 25; //250 0xFA
 214              		.loc 1 85 0
 215 00a2 1820     		movs	r0, #24
 216              	.LVL41:
 217 00a4 7047     		bx	lr
 218              	.LVL42:
 219              	.L23:
 220              		.loc 1 86 0
 221 00a6 1920     		movs	r0, #25
 222              	.LVL43:
  87:.\main.c      **** }
 223              		.loc 1 87 0
 224 00a8 7047     		bx	lr
 225              		.cfi_endproc
 226              	.LFE64:
 227              		.size	get_width, .-get_width
 228 00aa 00BF     		.section	.text.main,"ax",%progbits
 229              		.align	2
 230              		.global	main
 231              		.thumb
 232              		.thumb_func
 233              		.type	main, %function
 234              	main:
 235              	.LFB63:
ARM GAS  C:\Users\JOSEAN~1\AppData\Local\Temp\cciZENHc.s 			page 7


  18:.\main.c      **** uint8 Potential,Width,LCD_OutputString, contador,true,delay;
 236              		.loc 1 18 0
 237              		.cfi_startproc
 238              		@ args = 0, pretend = 0, frame = 0
 239              		@ frame_needed = 0, uses_anonymous_args = 0
 240 0000 F8B5     		push	{r3, r4, r5, r6, r7, lr}
 241              		.cfi_def_cfa_offset 24
 242              		.cfi_offset 3, -24
 243              		.cfi_offset 4, -20
 244              		.cfi_offset 5, -16
 245              		.cfi_offset 6, -12
 246              		.cfi_offset 7, -8
 247              		.cfi_offset 14, -4
 248              	.LVL44:
  23:.\main.c      ****  PWM_Start();
 249              		.loc 1 23 0
 250 0002 FFF7FEFF 		bl	Clock_Start
 251              	.LVL45:
  24:.\main.c      ****  ADC_Start();
 252              		.loc 1 24 0
 253 0006 FFF7FEFF 		bl	PWM_Start
 254              	.LVL46:
  25:.\main.c      ****  LCD_Start();
 255              		.loc 1 25 0
 256 000a FFF7FEFF 		bl	ADC_Start
 257              	.LVL47:
  26:.\main.c      ****  LCD_Position(0,0);
 258              		.loc 1 26 0
 259 000e FFF7FEFF 		bl	LCD_Start
 260              	.LVL48:
  27:.\main.c      ****  LCD_PrintString("Servo Pos:");
 261              		.loc 1 27 0
 262 0012 0020     		movs	r0, #0
 263 0014 0146     		mov	r1, r0
 264 0016 FFF7FEFF 		bl	LCD_Position
 265              	.LVL49:
  28:.\main.c      **** for(;;)
 266              		.loc 1 28 0
 267 001a 2548     		ldr	r0, .L34
 268 001c FFF7FEFF 		bl	LCD_PrintString
 269              	.LVL50:
  20:.\main.c      ****     contador =5;
 270              		.loc 1 20 0
 271 0020 0126     		movs	r6, #1
  21:.\main.c      ****     delay = 200;
 272              		.loc 1 21 0
 273 0022 0524     		movs	r4, #5
 274              	.LVL51:
 275              	.L31:
  31:.\main.c      ****  ADC_IsEndConversion(ADC_WAIT_FOR_RESULT);
 276              		.loc 1 31 0
 277 0024 FFF7FEFF 		bl	ADC_StartConvert
 278              	.LVL52:
  32:.\main.c      ****  Potential=ADC_GetResult8();
 279              		.loc 1 32 0
 280 0028 0020     		movs	r0, #0
 281 002a FFF7FEFF 		bl	ADC_IsEndConversion
ARM GAS  C:\Users\JOSEAN~1\AppData\Local\Temp\cciZENHc.s 			page 8


 282              	.LVL53:
  33:.\main.c      ****  delay= get_width(Potential);
 283              		.loc 1 33 0
 284 002e FFF7FEFF 		bl	ADC_GetResult8
 285              	.LVL54:
  34:.\main.c      **** if(contador>=5&contador<=25){
 286              		.loc 1 34 0
 287 0032 C0B2     		uxtb	r0, r0
 288 0034 FFF7FEFF 		bl	get_width
 289              	.LVL55:
  35:.\main.c      ****     if( true==1){
 290              		.loc 1 35 0
 291 0038 631F     		subs	r3, r4, #5
 292 003a DBB2     		uxtb	r3, r3
 293 003c 142B     		cmp	r3, #20
 294 003e 14D8     		bhi	.L25
  36:.\main.c      ****         Width= contador++;
 295              		.loc 1 36 0
 296 0040 4EB1     		cbz	r6, .L26
  37:.\main.c      ****         CyDelay(delay*10);
 297              		.loc 1 37 0
 298 0042 671C     		adds	r7, r4, #1
 299 0044 FFB2     		uxtb	r7, r7
 300              	.LVL56:
  38:.\main.c      ****     }
 301              		.loc 1 38 0
 302 0046 00EB8000 		add	r0, r0, r0, lsl #2
 303              	.LVL57:
 304 004a 4000     		lsls	r0, r0, #1
 305 004c FFF7FEFF 		bl	CyDelay
 306              	.LVL58:
  37:.\main.c      ****         CyDelay(delay*10);
 307              		.loc 1 37 0
 308 0050 2546     		mov	r5, r4
 309 0052 3C46     		mov	r4, r7
 310              	.LVL59:
 311 0054 12E0     		b	.L27
 312              	.LVL60:
 313              	.L26:
  41:.\main.c      ****         CyDelay(delay*10);
 314              		.loc 1 41 0
 315 0056 671E     		subs	r7, r4, #1
 316 0058 FFB2     		uxtb	r7, r7
 317              	.LVL61:
  42:.\main.c      ****     }
 318              		.loc 1 42 0
 319 005a 00EB8000 		add	r0, r0, r0, lsl #2
 320              	.LVL62:
 321 005e 4000     		lsls	r0, r0, #1
 322 0060 FFF7FEFF 		bl	CyDelay
 323              	.LVL63:
  41:.\main.c      ****         CyDelay(delay*10);
 324              		.loc 1 41 0
 325 0064 2546     		mov	r5, r4
 326 0066 3C46     		mov	r4, r7
 327              	.LVL64:
 328 0068 08E0     		b	.L27
ARM GAS  C:\Users\JOSEAN~1\AppData\Local\Temp\cciZENHc.s 			page 9


 329              	.LVL65:
 330              	.L25:
  45:.\main.c      ****     true=0;
 331              		.loc 1 45 0
 332 006a 192C     		cmp	r4, #25
 333 006c 03D9     		bls	.L28
 334              	.LVL66:
  47:.\main.c      **** }
 335              		.loc 1 47 0
 336 006e 013C     		subs	r4, r4, #1
 337              	.LVL67:
 338 0070 E4B2     		uxtb	r4, r4
 339              	.LVL68:
  46:.\main.c      ****     contador--;
 340              		.loc 1 46 0
 341 0072 0026     		movs	r6, #0
 342 0074 02E0     		b	.L27
 343              	.LVL69:
 344              	.L28:
  51:.\main.c      **** }
 345              		.loc 1 51 0
 346 0076 0134     		adds	r4, r4, #1
 347              	.LVL70:
 348 0078 E4B2     		uxtb	r4, r4
 349              	.LVL71:
  50:.\main.c      ****     contador++;
 350              		.loc 1 50 0
 351 007a 0126     		movs	r6, #1
 352              	.LVL72:
 353              	.L27:
  54:.\main.c      ****  else if (Width >19) LCD_OutputString= Width +12;
 354              		.loc 1 54 0
 355 007c A5F10A03 		sub	r3, r5, #10
 356 0080 DBB2     		uxtb	r3, r3
 357 0082 092B     		cmp	r3, #9
 358 0084 02D8     		bhi	.L29
  54:.\main.c      ****  else if (Width >19) LCD_OutputString= Width +12;
 359              		.loc 1 54 0 is_stmt 0 discriminator 1
 360 0086 AF1D     		adds	r7, r5, #6
 361 0088 FFB2     		uxtb	r7, r7
 362              	.LVL73:
 363 008a 06E0     		b	.L30
 364              	.LVL74:
 365              	.L29:
  55:.\main.c      ****  else LCD_OutputString= Width;
 366              		.loc 1 55 0 is_stmt 1
 367 008c 132D     		cmp	r5, #19
 368 008e 03D9     		bls	.L32
  55:.\main.c      ****  else LCD_OutputString= Width;
 369              		.loc 1 55 0 is_stmt 0 discriminator 1
 370 0090 05F10C07 		add	r7, r5, #12
 371 0094 FFB2     		uxtb	r7, r7
 372              	.LVL75:
 373 0096 00E0     		b	.L30
 374              	.LVL76:
 375              	.L32:
  56:.\main.c      **** 
ARM GAS  C:\Users\JOSEAN~1\AppData\Local\Temp\cciZENHc.s 			page 10


 376              		.loc 1 56 0 is_stmt 1
 377 0098 2F46     		mov	r7, r5
 378              	.L30:
 379              	.LVL77:
  58:.\main.c      ****  LCD_PrintInt8(LCD_OutputString);
 380              		.loc 1 58 0
 381 009a 0020     		movs	r0, #0
 382 009c 0A21     		movs	r1, #10
 383 009e FFF7FEFF 		bl	LCD_Position
 384              	.LVL78:
  59:.\main.c      ****  PWM_WriteCompare(Width);
 385              		.loc 1 59 0
 386 00a2 3846     		mov	r0, r7
 387 00a4 FFF7FEFF 		bl	LCD_PrintInt8
 388              	.LVL79:
  60:.\main.c      **** 
 389              		.loc 1 60 0
 390 00a8 2846     		mov	r0, r5
 391 00aa FFF7FEFF 		bl	PWM_WriteCompare
 392              	.LVL80:
  62:.\main.c      **** }
 393              		.loc 1 62 0
 394 00ae B9E7     		b	.L31
 395              	.L35:
 396              		.align	2
 397              	.L34:
 398 00b0 00000000 		.word	.LC0
 399              		.cfi_endproc
 400              	.LFE63:
 401              		.size	main, .-main
 402              		.section	.rodata.str1.4,"aMS",%progbits,1
 403              		.align	2
 404              	.LC0:
 405 0000 53657276 		.ascii	"Servo Pos:\000"
 405      6F20506F 
 405      733A00
 406 000b 00       		.text
 407              	.Letext0:
 408              		.file 2 "c:\\program files (x86)\\cypress\\psoc creator\\3.3\\psoc creator\\import\\gnu\\arm\\4.9.
 409              		.file 3 "c:\\program files (x86)\\cypress\\psoc creator\\3.3\\psoc creator\\import\\gnu\\arm\\4.9.
 410              		.file 4 "Generated_Source\\PSoC5/cytypes.h"
 411              		.file 5 "Generated_Source\\PSoC5/Clock.h"
 412              		.file 6 "Generated_Source\\PSoC5/PWM.h"
 413              		.file 7 "Generated_Source\\PSoC5/ADC.h"
 414              		.file 8 "Generated_Source\\PSoC5/LCD.h"
 415              		.file 9 "Generated_Source\\PSoC5/CyLib.h"
 416              		.file 10 "Generated_Source\\PSoC5/core_cm3.h"