ARM GAS  C:\Users\JOSEAN~1\AppData\Local\Temp\ccuDf7uk.s 			page 1


   1              		.syntax unified
   2              		.cpu cortex-m3
   3              		.fpu softvfp
   4              		.eabi_attribute 20, 1
   5              		.eabi_attribute 21, 1
   6              		.eabi_attribute 23, 3
   7              		.eabi_attribute 24, 1
   8              		.eabi_attribute 25, 1
   9              		.eabi_attribute 26, 1
  10              		.eabi_attribute 30, 1
  11              		.eabi_attribute 34, 1
  12              		.eabi_attribute 18, 4
  13              		.thumb
  14              		.file	"main.c"
  15              		.text
  16              	.Ltext0:
  17              		.cfi_sections	.debug_frame
  18              		.global	__aeabi_ui2f
  19              		.global	__aeabi_fdiv
  20              		.global	__aeabi_i2f
  21              		.global	__aeabi_fsub
  22              		.global	__aeabi_fcmplt
  23              		.global	__aeabi_fadd
  24              		.global	__aeabi_fcmpgt
  25              		.section	.text.UltraSonidos,"ax",%progbits
  26              		.align	2
  27              		.global	UltraSonidos
  28              		.thumb
  29              		.thumb_func
  30              		.type	UltraSonidos, %function
  31              	UltraSonidos:
  32              	.LFB64:
  33              		.file 1 ".\\main.c"
   1:.\main.c      **** /* ========================================
   2:.\main.c      ****  *
   3:.\main.c      ****  * Copyright YOUR COMPANY, THE YEAR
   4:.\main.c      ****  * All Rights Reserved
   5:.\main.c      ****  * UNPUBLISHED, LICENSED SOFTWARE.
   6:.\main.c      ****  *
   7:.\main.c      ****  * CONFIDENTIAL AND PROPRIETARY INFORMATION
   8:.\main.c      ****  * WHICH IS THE PROPERTY OF your company.
   9:.\main.c      ****  *
  10:.\main.c      ****  * ========================================
  11:.\main.c      **** */
  12:.\main.c      **** #include <project.h>
  13:.\main.c      **** #include <stdio.h>
  14:.\main.c      **** #include <stdlib.h>
  15:.\main.c      **** #include <string.h>
  16:.\main.c      **** uint8 get_width(uint8 volt);
  17:.\main.c      **** uint8 Potential,Width,LCD_OutputString, contador,true,delay;
  18:.\main.c      **** uint16 	TimeDistMeas 	= 0;					// Value read from TimeDistMeas, eg HC-SRO4 PW returned, in 1 uS inc
  19:.\main.c      **** float 	distmeas 		= 0.0;					// Value measured, uS / 148 = inches
  20:.\main.c      **** char 	dispbuff[ 20 ];	
  21:.\main.c      **** uint16 TimeDistMeas2    = 0;
  22:.\main.c      **** float   distmeas2        = 0.0;
  23:.\main.c      **** int mov = 0;
  24:.\main.c      **** char mensaje;
ARM GAS  C:\Users\JOSEAN~1\AppData\Local\Temp\ccuDf7uk.s 			page 2


  25:.\main.c      **** void ServoMotor();
  26:.\main.c      **** void UltraSonidos();
  27:.\main.c      **** int width = 0;
  28:.\main.c      **** int mueve =1;
  29:.\main.c      **** int sensibilidad = 5;
  30:.\main.c      **** float lecturas1[11], lecturas2[11];
  31:.\main.c      **** int i = 0;
  32:.\main.c      **** int ya_toma = 0;
  33:.\main.c      **** uint8 pasa_posicion(float grados);
  34:.\main.c      **** //void mueve_ar_killo();
  35:.\main.c      **** void envia_mensaje();
  36:.\main.c      **** void coloca_muestreo();
  37:.\main.c      **** void accion_mensaje(char mensajeS);
  38:.\main.c      **** int signal;
  39:.\main.c      **** uint8 MyArray[512];
  40:.\main.c      **** int main()
  41:.\main.c      **** {
  42:.\main.c      **** 	CYGlobalIntEnable;
  43:.\main.c      **** //	Clock_1_Enable();
  44:.\main.c      **** //	Clock_2_Enable();
  45:.\main.c      **** 	true =1;
  46:.\main.c      **** 	contador =5;
  47:.\main.c      **** 	delay = 200;
  48:.\main.c      ****  ADC_Start();
  49:.\main.c      ****  LCD_Start();
  50:.\main.c      ****  LCD_Position(0,0);
  51:.\main.c      ****  LCD_PrintString("Sensibilidad:");
  52:.\main.c      ****  LCD_Position(0,14);
  53:.\main.c      ****  LCD_PrintInt8(sensibilidad);
  54:.\main.c      **** //	CyGlobalIntEnable; /* Enable global interrupts. */
  55:.\main.c      **** TimeDistMeas_Start( ); 
  56:.\main.c      **** 	/* Place your initialization/startup code here (e.g. MyInst_Start()) */
  57:.\main.c      **** 
  58:.\main.c      **** 	for(;;)
  59:.\main.c      **** 	{
  60:.\main.c      **** 		/* Place your application code here. */
  61:.\main.c      **** 		//ServoMotor();
  62:.\main.c      **** 		//if(toma_Read()==1)
  63:.\main.c      **** 			UltraSonidos();
  64:.\main.c      **** 		
  65:.\main.c      **** 				ADC_StartConvert();
  66:.\main.c      ****  ADC_IsEndConversion(ADC_WAIT_FOR_RESULT);
  67:.\main.c      ****  Potential=ADC_GetResult8();
  68:.\main.c      ****  width = get_width(Potential);
  69:.\main.c      ****  if((width <25) && (width > 5)){
  70:.\main.c      **** 	sensibilidad = width;
  71:.\main.c      **** }
  72:.\main.c      ****  LCD_Position(0,14);
  73:.\main.c      ****  LCD_PrintInt8(sensibilidad);
  74:.\main.c      **** //        mueve_ar_killo();
  75:.\main.c      **** 	}
  76:.\main.c      **** }
  77:.\main.c      **** /*
  78:.\main.c      **** void ServoMotor()
  79:.\main.c      **** {
  80:.\main.c      **** 	ADC_StartConvert();
  81:.\main.c      ****  ADC_IsEndConversion(ADC_WAIT_FOR_RESULT);
ARM GAS  C:\Users\JOSEAN~1\AppData\Local\Temp\ccuDf7uk.s 			page 3


  82:.\main.c      ****  Potential=ADC_GetResult8();
  83:.\main.c      ****  delay= 1000;
  84:.\main.c      **** if (mueve){
  85:.\main.c      **** 	if((contador>=5)&(contador<=25)){
  86:.\main.c      **** 	if( true==1){
  87:.\main.c      **** 		Width= contador++;
  88:.\main.c      **** 		CyDelay(delay);
  89:.\main.c      **** 	}
  90:.\main.c      **** 	else{
  91:.\main.c      **** 		Width= contador--;
  92:.\main.c      **** 		CyDelay(delay);
  93:.\main.c      **** 	}
  94:.\main.c      **** }
  95:.\main.c      **** else if (contador>25){
  96:.\main.c      **** 	true=0;
  97:.\main.c      **** 	contador--;
  98:.\main.c      **** }
  99:.\main.c      **** else{
 100:.\main.c      **** 	true=1;
 101:.\main.c      **** 	contador++;
 102:.\main.c      **** }
 103:.\main.c      **** }
 104:.\main.c      **** 
 105:.\main.c      ****  if((Width >9)&( Width <20)) LCD_OutputString= Width +6;
 106:.\main.c      ****  else if (Width >19) LCD_OutputString= Width +12;
 107:.\main.c      ****  else LCD_OutputString= Width;
 108:.\main.c      **** 
 109:.\main.c      ****  LCD_Position(0,10);
 110:.\main.c      ****  LCD_PrintInt8(LCD_OutputString);
 111:.\main.c      ****  PWM_WriteCompare(Width);
 112:.\main.c      **** 
 113:.\main.c      ****  }
 114:.\main.c      **** */
 115:.\main.c      **** void UltraSonidos()
 116:.\main.c      **** {
  34              		.loc 1 116 0
  35              		.cfi_startproc
  36              		@ args = 0, pretend = 0, frame = 0
  37              		@ frame_needed = 0, uses_anonymous_args = 0
  38 0000 F8B5     		push	{r3, r4, r5, r6, r7, lr}
  39              		.cfi_def_cfa_offset 24
  40              		.cfi_offset 3, -24
  41              		.cfi_offset 4, -20
  42              		.cfi_offset 5, -16
  43              		.cfi_offset 6, -12
  44              		.cfi_offset 7, -8
  45              		.cfi_offset 14, -4
 117:.\main.c      **** 		while( DistOutHCSRO4_Read( ) == 0 ) { 					// HC-SRO4 ready for a trigger, to start new measureme
  46              		.loc 1 117 0
  47 0002 0BE0     		b	.L2
  48              	.L3:
 118:.\main.c      **** 			
 119:.\main.c      **** 			Triggen_Write( 1 ); 								// Trigger the HC-SRO4 to issue the 10 uS start pulse, and reset Tim
  49              		.loc 1 119 0
  50 0004 0120     		movs	r0, #1
  51 0006 FFF7FEFF 		bl	Triggen_Write
  52              	.LVL0:
ARM GAS  C:\Users\JOSEAN~1\AppData\Local\Temp\ccuDf7uk.s 			page 4


 120:.\main.c      **** 			CyDelayUs( 10 );									// Trigger high for 10 uS
  53              		.loc 1 120 0
  54 000a 0A20     		movs	r0, #10
  55 000c FFF7FEFF 		bl	CyDelayUs
  56              	.LVL1:
 121:.\main.c      **** 			Triggen_Write( 0 );									// Remove trigger and reset from TimeDistMeas
  57              		.loc 1 121 0
  58 0010 0020     		movs	r0, #0
  59 0012 FFF7FEFF 		bl	Triggen_Write
  60              	.LVL2:
 122:.\main.c      **** 			CyDelay( 1 );										// Delay 1 mS to see if HC-SRO4 started a measurement, if not issue anoth
  61              		.loc 1 122 0
  62 0016 0120     		movs	r0, #1
  63 0018 FFF7FEFF 		bl	CyDelay
  64              	.LVL3:
  65              	.L2:
 117:.\main.c      **** 			
  66              		.loc 1 117 0
  67 001c FFF7FEFF 		bl	DistOutHCSRO4_Read
  68              	.LVL4:
  69 0020 0028     		cmp	r0, #0
  70 0022 EFD0     		beq	.L3
  71              	.L4:
 123:.\main.c      **** 			
 124:.\main.c      **** 		}
 125:.\main.c      **** 		while( DistOutHCSRO4_Read( ) == 1 ) { };				// Wait until HC-SRO4 finishes measurement cycle
  72              		.loc 1 125 0 discriminator 1
  73 0024 FFF7FEFF 		bl	DistOutHCSRO4_Read
  74              	.LVL5:
  75 0028 0128     		cmp	r0, #1
  76 002a FBD0     		beq	.L4
 126:.\main.c      **** 
 127:.\main.c      **** 		TimeDistMeas = 65535 - TimeDistMeas_ReadCounter( );		// Get timer value, PW in uS, of HC-SRO4
  77              		.loc 1 127 0
  78 002c FFF7FEFF 		bl	TimeDistMeas_ReadCounter
  79              	.LVL6:
  80 0030 C043     		mvns	r0, r0
  81 0032 80B2     		uxth	r0, r0
  82 0034 314C     		ldr	r4, .L16
  83 0036 2080     		strh	r0, [r4]	@ movhi
 128:.\main.c      **** 		distmeas = (float) TimeDistMeas / 148.0;
  84              		.loc 1 128 0
  85 0038 FFF7FEFF 		bl	__aeabi_ui2f
  86              	.LVL7:
  87 003c 3049     		ldr	r1, .L16+4
  88 003e FFF7FEFF 		bl	__aeabi_fdiv
  89              	.LVL8:
  90 0042 0546     		mov	r5, r0
  91 0044 6060     		str	r0, [r4, #4]	@ float
 129:.\main.c      **** 		if (ya_toma){
  92              		.loc 1 129 0
  93 0046 A368     		ldr	r3, [r4, #8]
  94 0048 002B     		cmp	r3, #0
  95 004a 38D0     		beq	.L5
 130:.\main.c      **** 			if ((distmeas<lecturas1[i]-sensibilidad)||(distmeas>lecturas1[i]+sensibilidad)){
  96              		.loc 1 130 0
  97 004c E768     		ldr	r7, [r4, #12]
ARM GAS  C:\Users\JOSEAN~1\AppData\Local\Temp\ccuDf7uk.s 			page 5


  98 004e 2D4B     		ldr	r3, .L16+8
  99 0050 53F82760 		ldr	r6, [r3, r7, lsl #2]	@ float
 100 0054 2C4B     		ldr	r3, .L16+12
 101 0056 1868     		ldr	r0, [r3]
 102 0058 FFF7FEFF 		bl	__aeabi_i2f
 103              	.LVL9:
 104 005c 0446     		mov	r4, r0
 105 005e 3046     		mov	r0, r6
 106 0060 2146     		mov	r1, r4
 107 0062 FFF7FEFF 		bl	__aeabi_fsub
 108              	.LVL10:
 109 0066 0146     		mov	r1, r0
 110 0068 2846     		mov	r0, r5
 111 006a FFF7FEFF 		bl	__aeabi_fcmplt
 112              	.LVL11:
 113 006e 40B9     		cbnz	r0, .L6
 114              		.loc 1 130 0 is_stmt 0 discriminator 1
 115 0070 3046     		mov	r0, r6
 116 0072 2146     		mov	r1, r4
 117 0074 FFF7FEFF 		bl	__aeabi_fadd
 118              	.LVL12:
 119 0078 0146     		mov	r1, r0
 120 007a 2846     		mov	r0, r5
 121 007c FFF7FEFF 		bl	__aeabi_fcmpgt
 122              	.LVL13:
 123 0080 18B1     		cbz	r0, .L14
 124              	.L6:
 131:.\main.c      **** 				foto_Write(1);
 125              		.loc 1 131 0 is_stmt 1
 126 0082 0120     		movs	r0, #1
 127 0084 FFF7FEFF 		bl	foto_Write
 128              	.LVL14:
 129 0088 22E0     		b	.L9
 130              	.L14:
 132:.\main.c      ****  //               ya_toma = 0;
 133:.\main.c      **** 			}
 134:.\main.c      **** 			else if ((distmeas2<lecturas2[i]-sensibilidad)||(distmeas2<lecturas2[i]+sensibilidad)){
 131              		.loc 1 134 0
 132 008a 204B     		ldr	r3, .L16+16
 133 008c 53F82760 		ldr	r6, [r3, r7, lsl #2]	@ float
 134 0090 3046     		mov	r0, r6
 135 0092 2146     		mov	r1, r4
 136 0094 FFF7FEFF 		bl	__aeabi_fsub
 137              	.LVL15:
 138 0098 184B     		ldr	r3, .L16
 139 009a 1D69     		ldr	r5, [r3, #16]	@ float
 140 009c 2946     		mov	r1, r5
 141 009e FFF7FEFF 		bl	__aeabi_fcmpgt
 142              	.LVL16:
 143 00a2 40B9     		cbnz	r0, .L10
 144              		.loc 1 134 0 is_stmt 0 discriminator 1
 145 00a4 2046     		mov	r0, r4
 146 00a6 3146     		mov	r1, r6
 147 00a8 FFF7FEFF 		bl	__aeabi_fadd
 148              	.LVL17:
 149 00ac 0146     		mov	r1, r0
 150 00ae 2846     		mov	r0, r5
ARM GAS  C:\Users\JOSEAN~1\AppData\Local\Temp\ccuDf7uk.s 			page 6


 151 00b0 FFF7FEFF 		bl	__aeabi_fcmplt
 152              	.LVL18:
 153 00b4 60B1     		cbz	r0, .L9
 154              	.L10:
 135:.\main.c      **** 				foto_Write(1);
 155              		.loc 1 135 0 is_stmt 1
 156 00b6 0120     		movs	r0, #1
 157 00b8 FFF7FEFF 		bl	foto_Write
 158              	.LVL19:
 159 00bc 08E0     		b	.L9
 160              	.L5:
 136:.\main.c      **** //                ya_toma = 0;
 137:.\main.c      **** 			}
 138:.\main.c      **** 		}
 139:.\main.c      **** 		else{
 140:.\main.c      **** 			lecturas1[i]=distmeas;
 161              		.loc 1 140 0
 162 00be 0F4A     		ldr	r2, .L16
 163 00c0 D368     		ldr	r3, [r2, #12]
 164 00c2 1049     		ldr	r1, .L16+8
 165 00c4 41F82300 		str	r0, [r1, r3, lsl #2]	@ float
 141:.\main.c      **** 			lecturas2[i]=distmeas2;
 166              		.loc 1 141 0
 167 00c8 1169     		ldr	r1, [r2, #16]	@ float
 168 00ca 104A     		ldr	r2, .L16+16
 169 00cc 42F82310 		str	r1, [r2, r3, lsl #2]	@ float
 170              	.L9:
 142:.\main.c      **** 		}
 143:.\main.c      **** 		if(i>10){
 171              		.loc 1 143 0
 172 00d0 0A4B     		ldr	r3, .L16
 173 00d2 DB68     		ldr	r3, [r3, #12]
 174 00d4 0A2B     		cmp	r3, #10
 175 00d6 0CDD     		ble	.L12
 144:.\main.c      **** 			mueve++;
 176              		.loc 1 144 0
 177 00d8 0B4A     		ldr	r2, .L16+12
 178 00da 5368     		ldr	r3, [r2, #4]
 179 00dc 0133     		adds	r3, r3, #1
 180 00de 5360     		str	r3, [r2, #4]
 145:.\main.c      **** 			i=0;
 181              		.loc 1 145 0
 182 00e0 0021     		movs	r1, #0
 183 00e2 064A     		ldr	r2, .L16
 184 00e4 D160     		str	r1, [r2, #12]
 146:.\main.c      **** 			if(mueve == 5){
 185              		.loc 1 146 0
 186 00e6 052B     		cmp	r3, #5
 187 00e8 06D1     		bne	.L1
 147:.\main.c      **** 				ya_toma = 1;
 188              		.loc 1 147 0
 189 00ea 0122     		movs	r2, #1
 190 00ec 034B     		ldr	r3, .L16
 191 00ee 9A60     		str	r2, [r3, #8]
 192 00f0 F8BD     		pop	{r3, r4, r5, r6, r7, pc}
 193              	.L12:
 148:.\main.c      **** 			}
ARM GAS  C:\Users\JOSEAN~1\AppData\Local\Temp\ccuDf7uk.s 			page 7


 149:.\main.c      **** 		}
 150:.\main.c      **** 		else{
 151:.\main.c      **** 			i++;
 194              		.loc 1 151 0
 195 00f2 0133     		adds	r3, r3, #1
 196 00f4 014A     		ldr	r2, .L16
 197 00f6 D360     		str	r3, [r2, #12]
 198              	.L1:
 199 00f8 F8BD     		pop	{r3, r4, r5, r6, r7, pc}
 200              	.L17:
 201 00fa 00BF     		.align	2
 202              	.L16:
 203 00fc 00000000 		.word	.LANCHOR0
 204 0100 00001443 		.word	1125384192
 205 0104 00000000 		.word	lecturas1
 206 0108 00000000 		.word	.LANCHOR1
 207 010c 00000000 		.word	lecturas2
 208              		.cfi_endproc
 209              	.LFE64:
 210              		.size	UltraSonidos, .-UltraSonidos
 211              		.section	.text.get_width,"ax",%progbits
 212              		.align	2
 213              		.global	get_width
 214              		.thumb
 215              		.thumb_func
 216              		.type	get_width, %function
 217              	get_width:
 218              	.LFB65:
 152:.\main.c      **** 		}
 153:.\main.c      **** //        foto_Write(0);
 154:.\main.c      **** 		
 155:.\main.c      **** 
 156:.\main.c      **** 
 157:.\main.c      **** 		//sprintf( dispbuff, "%.2f", distmeas );					// Convert distmeas to a string to print on LCD
 158:.\main.c      **** /*		sprintf( dispbuff, "%d", (int)distmeas );					// Convert distmeas to a string to print on LCD
 159:.\main.c      **** 		LCD_Position( 0, 11 );									// Position cursor
 160:.\main.c      **** 		LCD_PrintString( dispbuff );
 161:.\main.c      **** */
 162:.\main.c      **** 			}
 163:.\main.c      **** 
 164:.\main.c      **** uint8 get_width(uint8 volt)
 165:.\main.c      **** {
 219              		.loc 1 165 0
 220              		.cfi_startproc
 221              		@ args = 0, pretend = 0, frame = 0
 222              		@ frame_needed = 0, uses_anonymous_args = 0
 223              		@ link register save eliminated.
 224              	.LVL20:
 166:.\main.c      **** if (volt<0x0C) return 5; //12 0x0C
 225              		.loc 1 166 0
 226 0000 0B28     		cmp	r0, #11
 227 0002 28D9     		bls	.L20
 167:.\main.c      **** else if (volt<0x19) return 6; //25 0x19
 228              		.loc 1 167 0
 229 0004 1828     		cmp	r0, #24
 230 0006 28D9     		bls	.L21
 168:.\main.c      **** else if (volt<0x26) return 7; //38 0x26 
ARM GAS  C:\Users\JOSEAN~1\AppData\Local\Temp\ccuDf7uk.s 			page 8


 231              		.loc 1 168 0
 232 0008 2528     		cmp	r0, #37
 233 000a 28D9     		bls	.L22
 169:.\main.c      **** else if (volt<0x32) return 8; //50 0x32
 234              		.loc 1 169 0
 235 000c 3128     		cmp	r0, #49
 236 000e 28D9     		bls	.L23
 170:.\main.c      **** else if (volt<0x3e) return 9; //62 0x3e
 237              		.loc 1 170 0
 238 0010 3D28     		cmp	r0, #61
 239 0012 28D9     		bls	.L24
 171:.\main.c      **** else if (volt<0x4B) return 10; //75 0x4b
 240              		.loc 1 171 0
 241 0014 4A28     		cmp	r0, #74
 242 0016 28D9     		bls	.L25
 172:.\main.c      **** else if (volt<0x57) return 11; //87 0x57
 243              		.loc 1 172 0
 244 0018 5628     		cmp	r0, #86
 245 001a 28D9     		bls	.L26
 173:.\main.c      **** else if (volt<0x64) return 12; //100 0x64
 246              		.loc 1 173 0
 247 001c 6328     		cmp	r0, #99
 248 001e 28D9     		bls	.L27
 174:.\main.c      **** else if (volt<0x70) return 13; //112 0x70
 249              		.loc 1 174 0
 250 0020 6F28     		cmp	r0, #111
 251 0022 28D9     		bls	.L28
 175:.\main.c      **** else if (volt<0x7D) return 14; //125 0x7d
 252              		.loc 1 175 0
 253 0024 7C28     		cmp	r0, #124
 254 0026 28D9     		bls	.L29
 176:.\main.c      **** else if (volt<0x89) return 15; //137 0x89
 255              		.loc 1 176 0
 256 0028 8828     		cmp	r0, #136
 257 002a 28D9     		bls	.L30
 177:.\main.c      **** else if (volt<0x96) return 16; //150 0x96
 258              		.loc 1 177 0
 259 002c 9528     		cmp	r0, #149
 260 002e 28D9     		bls	.L31
 178:.\main.c      **** else if (volt<0xA2) return 17; //162 0xA2
 261              		.loc 1 178 0
 262 0030 A128     		cmp	r0, #161
 263 0032 28D9     		bls	.L32
 179:.\main.c      **** else if (volt<0xAF) return 18; //175 0xAF
 264              		.loc 1 179 0
 265 0034 AE28     		cmp	r0, #174
 266 0036 28D9     		bls	.L33
 180:.\main.c      **** else if (volt<0xBB) return 19; //187 0xBB
 267              		.loc 1 180 0
 268 0038 BA28     		cmp	r0, #186
 269 003a 28D9     		bls	.L34
 181:.\main.c      **** else if (volt<0xC8) return 20; //200 0xC8
 270              		.loc 1 181 0
 271 003c C728     		cmp	r0, #199
 272 003e 28D9     		bls	.L35
 182:.\main.c      **** else if (volt<0xD4) return 21; //212 0xD4
 273              		.loc 1 182 0
ARM GAS  C:\Users\JOSEAN~1\AppData\Local\Temp\ccuDf7uk.s 			page 9


 274 0040 D328     		cmp	r0, #211
 275 0042 28D9     		bls	.L36
 183:.\main.c      **** else if (volt<0xE1) return 22; //225 0xE1
 276              		.loc 1 183 0
 277 0044 E028     		cmp	r0, #224
 278 0046 28D9     		bls	.L37
 184:.\main.c      **** else if (volt<0xED) return 23; //237 0xED
 279              		.loc 1 184 0
 280 0048 EC28     		cmp	r0, #236
 281 004a 28D9     		bls	.L38
 185:.\main.c      **** else if (volt<0xFA) return 24; //250 0xFA
 282              		.loc 1 185 0
 283 004c F928     		cmp	r0, #249
 284 004e 28D9     		bls	.L39
 186:.\main.c      **** else if (volt>0xFA) return 25; //250 0xFA
 285              		.loc 1 186 0
 286 0050 FA28     		cmp	r0, #250
 287 0052 28D8     		bhi	.L40
 288              	.LVL21:
 289 0054 7047     		bx	lr
 290              	.LVL22:
 291              	.L20:
 166:.\main.c      **** else if (volt<0x19) return 6; //25 0x19
 292              		.loc 1 166 0
 293 0056 0520     		movs	r0, #5
 294              	.LVL23:
 295 0058 7047     		bx	lr
 296              	.LVL24:
 297              	.L21:
 167:.\main.c      **** else if (volt<0x26) return 7; //38 0x26 
 298              		.loc 1 167 0
 299 005a 0620     		movs	r0, #6
 300              	.LVL25:
 301 005c 7047     		bx	lr
 302              	.LVL26:
 303              	.L22:
 168:.\main.c      **** else if (volt<0x32) return 8; //50 0x32
 304              		.loc 1 168 0
 305 005e 0720     		movs	r0, #7
 306              	.LVL27:
 307 0060 7047     		bx	lr
 308              	.LVL28:
 309              	.L23:
 169:.\main.c      **** else if (volt<0x3e) return 9; //62 0x3e
 310              		.loc 1 169 0
 311 0062 0820     		movs	r0, #8
 312              	.LVL29:
 313 0064 7047     		bx	lr
 314              	.LVL30:
 315              	.L24:
 170:.\main.c      **** else if (volt<0x4B) return 10; //75 0x4b
 316              		.loc 1 170 0
 317 0066 0920     		movs	r0, #9
 318              	.LVL31:
 319 0068 7047     		bx	lr
 320              	.LVL32:
 321              	.L25:
ARM GAS  C:\Users\JOSEAN~1\AppData\Local\Temp\ccuDf7uk.s 			page 10


 171:.\main.c      **** else if (volt<0x57) return 11; //87 0x57
 322              		.loc 1 171 0
 323 006a 0A20     		movs	r0, #10
 324              	.LVL33:
 325 006c 7047     		bx	lr
 326              	.LVL34:
 327              	.L26:
 172:.\main.c      **** else if (volt<0x64) return 12; //100 0x64
 328              		.loc 1 172 0
 329 006e 0B20     		movs	r0, #11
 330              	.LVL35:
 331 0070 7047     		bx	lr
 332              	.LVL36:
 333              	.L27:
 173:.\main.c      **** else if (volt<0x70) return 13; //112 0x70
 334              		.loc 1 173 0
 335 0072 0C20     		movs	r0, #12
 336              	.LVL37:
 337 0074 7047     		bx	lr
 338              	.LVL38:
 339              	.L28:
 174:.\main.c      **** else if (volt<0x7D) return 14; //125 0x7d
 340              		.loc 1 174 0
 341 0076 0D20     		movs	r0, #13
 342              	.LVL39:
 343 0078 7047     		bx	lr
 344              	.LVL40:
 345              	.L29:
 175:.\main.c      **** else if (volt<0x89) return 15; //137 0x89
 346              		.loc 1 175 0
 347 007a 0E20     		movs	r0, #14
 348              	.LVL41:
 349 007c 7047     		bx	lr
 350              	.LVL42:
 351              	.L30:
 176:.\main.c      **** else if (volt<0x96) return 16; //150 0x96
 352              		.loc 1 176 0
 353 007e 0F20     		movs	r0, #15
 354              	.LVL43:
 355 0080 7047     		bx	lr
 356              	.LVL44:
 357              	.L31:
 177:.\main.c      **** else if (volt<0xA2) return 17; //162 0xA2
 358              		.loc 1 177 0
 359 0082 1020     		movs	r0, #16
 360              	.LVL45:
 361 0084 7047     		bx	lr
 362              	.LVL46:
 363              	.L32:
 178:.\main.c      **** else if (volt<0xAF) return 18; //175 0xAF
 364              		.loc 1 178 0
 365 0086 1120     		movs	r0, #17
 366              	.LVL47:
 367 0088 7047     		bx	lr
 368              	.LVL48:
 369              	.L33:
 179:.\main.c      **** else if (volt<0xBB) return 19; //187 0xBB
ARM GAS  C:\Users\JOSEAN~1\AppData\Local\Temp\ccuDf7uk.s 			page 11


 370              		.loc 1 179 0
 371 008a 1220     		movs	r0, #18
 372              	.LVL49:
 373 008c 7047     		bx	lr
 374              	.LVL50:
 375              	.L34:
 180:.\main.c      **** else if (volt<0xC8) return 20; //200 0xC8
 376              		.loc 1 180 0
 377 008e 1320     		movs	r0, #19
 378              	.LVL51:
 379 0090 7047     		bx	lr
 380              	.LVL52:
 381              	.L35:
 181:.\main.c      **** else if (volt<0xD4) return 21; //212 0xD4
 382              		.loc 1 181 0
 383 0092 1420     		movs	r0, #20
 384              	.LVL53:
 385 0094 7047     		bx	lr
 386              	.LVL54:
 387              	.L36:
 182:.\main.c      **** else if (volt<0xE1) return 22; //225 0xE1
 388              		.loc 1 182 0
 389 0096 1520     		movs	r0, #21
 390              	.LVL55:
 391 0098 7047     		bx	lr
 392              	.LVL56:
 393              	.L37:
 183:.\main.c      **** else if (volt<0xED) return 23; //237 0xED
 394              		.loc 1 183 0
 395 009a 1620     		movs	r0, #22
 396              	.LVL57:
 397 009c 7047     		bx	lr
 398              	.LVL58:
 399              	.L38:
 184:.\main.c      **** else if (volt<0xFA) return 24; //250 0xFA
 400              		.loc 1 184 0
 401 009e 1720     		movs	r0, #23
 402              	.LVL59:
 403 00a0 7047     		bx	lr
 404              	.LVL60:
 405              	.L39:
 185:.\main.c      **** else if (volt>0xFA) return 25; //250 0xFA
 406              		.loc 1 185 0
 407 00a2 1820     		movs	r0, #24
 408              	.LVL61:
 409 00a4 7047     		bx	lr
 410              	.LVL62:
 411              	.L40:
 412              		.loc 1 186 0
 413 00a6 1920     		movs	r0, #25
 414              	.LVL63:
 187:.\main.c      **** //else return 10;
 188:.\main.c      **** }
 415              		.loc 1 188 0
 416 00a8 7047     		bx	lr
 417              		.cfi_endproc
 418              	.LFE65:
ARM GAS  C:\Users\JOSEAN~1\AppData\Local\Temp\ccuDf7uk.s 			page 12


 419              		.size	get_width, .-get_width
 420 00aa 00BF     		.section	.text.main,"ax",%progbits
 421              		.align	2
 422              		.global	main
 423              		.thumb
 424              		.thumb_func
 425              		.type	main, %function
 426              	main:
 427              	.LFB63:
  41:.\main.c      **** 	CYGlobalIntEnable;
 428              		.loc 1 41 0
 429              		.cfi_startproc
 430              		@ Volatile: function does not return.
 431              		@ args = 0, pretend = 0, frame = 0
 432              		@ frame_needed = 0, uses_anonymous_args = 0
 433 0000 08B5     		push	{r3, lr}
 434              		.cfi_def_cfa_offset 8
 435              		.cfi_offset 3, -8
 436              		.cfi_offset 14, -4
  42:.\main.c      **** //	Clock_1_Enable();
 437              		.loc 1 42 0
 438              	@ 42 ".\main.c" 1
 439 0002 62B6     		CPSIE   i
 440              	@ 0 "" 2
  45:.\main.c      **** 	contador =5;
 441              		.loc 1 45 0
 442              		.thumb
 443 0004 0122     		movs	r2, #1
 444 0006 1D4B     		ldr	r3, .L45
 445 0008 1A70     		strb	r2, [r3]
  46:.\main.c      **** 	delay = 200;
 446              		.loc 1 46 0
 447 000a 0522     		movs	r2, #5
 448 000c 1C4B     		ldr	r3, .L45+4
 449 000e 1A70     		strb	r2, [r3]
  47:.\main.c      ****  ADC_Start();
 450              		.loc 1 47 0
 451 0010 C822     		movs	r2, #200
 452 0012 1C4B     		ldr	r3, .L45+8
 453 0014 1A70     		strb	r2, [r3]
  48:.\main.c      ****  LCD_Start();
 454              		.loc 1 48 0
 455 0016 FFF7FEFF 		bl	ADC_Start
 456              	.LVL64:
  49:.\main.c      ****  LCD_Position(0,0);
 457              		.loc 1 49 0
 458 001a FFF7FEFF 		bl	LCD_Start
 459              	.LVL65:
  50:.\main.c      ****  LCD_PrintString("Sensibilidad:");
 460              		.loc 1 50 0
 461 001e 0020     		movs	r0, #0
 462 0020 0146     		mov	r1, r0
 463 0022 FFF7FEFF 		bl	LCD_Position
 464              	.LVL66:
  51:.\main.c      ****  LCD_Position(0,14);
 465              		.loc 1 51 0
 466 0026 1848     		ldr	r0, .L45+12
ARM GAS  C:\Users\JOSEAN~1\AppData\Local\Temp\ccuDf7uk.s 			page 13


 467 0028 FFF7FEFF 		bl	LCD_PrintString
 468              	.LVL67:
  52:.\main.c      ****  LCD_PrintInt8(sensibilidad);
 469              		.loc 1 52 0
 470 002c 0020     		movs	r0, #0
 471 002e 0E21     		movs	r1, #14
 472 0030 FFF7FEFF 		bl	LCD_Position
 473              	.LVL68:
  53:.\main.c      **** //	CyGlobalIntEnable; /* Enable global interrupts. */
 474              		.loc 1 53 0
 475 0034 154B     		ldr	r3, .L45+16
 476 0036 1878     		ldrb	r0, [r3]	@ zero_extendqisi2
 477 0038 FFF7FEFF 		bl	LCD_PrintInt8
 478              	.LVL69:
  55:.\main.c      **** 	/* Place your initialization/startup code here (e.g. MyInst_Start()) */
 479              		.loc 1 55 0
 480 003c FFF7FEFF 		bl	TimeDistMeas_Start
 481              	.LVL70:
 482              	.L43:
  63:.\main.c      **** 		
 483              		.loc 1 63 0
 484 0040 FFF7FEFF 		bl	UltraSonidos
 485              	.LVL71:
  65:.\main.c      ****  ADC_IsEndConversion(ADC_WAIT_FOR_RESULT);
 486              		.loc 1 65 0
 487 0044 FFF7FEFF 		bl	ADC_StartConvert
 488              	.LVL72:
  66:.\main.c      ****  Potential=ADC_GetResult8();
 489              		.loc 1 66 0
 490 0048 0020     		movs	r0, #0
 491 004a FFF7FEFF 		bl	ADC_IsEndConversion
 492              	.LVL73:
  67:.\main.c      ****  width = get_width(Potential);
 493              		.loc 1 67 0
 494 004e FFF7FEFF 		bl	ADC_GetResult8
 495              	.LVL74:
 496 0052 C0B2     		uxtb	r0, r0
 497 0054 0E4B     		ldr	r3, .L45+20
 498 0056 1870     		strb	r0, [r3]
  68:.\main.c      ****  if((width <25) && (width > 5)){
 499              		.loc 1 68 0
 500 0058 FFF7FEFF 		bl	get_width
 501              	.LVL75:
 502 005c 0D4B     		ldr	r3, .L45+24
 503 005e 5861     		str	r0, [r3, #20]
  69:.\main.c      **** 	sensibilidad = width;
 504              		.loc 1 69 0
 505 0060 831F     		subs	r3, r0, #6
 506 0062 122B     		cmp	r3, #18
 507 0064 01D8     		bhi	.L42
  70:.\main.c      **** }
 508              		.loc 1 70 0
 509 0066 094B     		ldr	r3, .L45+16
 510 0068 1860     		str	r0, [r3]
 511              	.L42:
  72:.\main.c      ****  LCD_PrintInt8(sensibilidad);
 512              		.loc 1 72 0
ARM GAS  C:\Users\JOSEAN~1\AppData\Local\Temp\ccuDf7uk.s 			page 14


 513 006a 0020     		movs	r0, #0
 514 006c 0E21     		movs	r1, #14
 515 006e FFF7FEFF 		bl	LCD_Position
 516              	.LVL76:
  73:.\main.c      **** //        mueve_ar_killo();
 517              		.loc 1 73 0
 518 0072 064B     		ldr	r3, .L45+16
 519 0074 1878     		ldrb	r0, [r3]	@ zero_extendqisi2
 520 0076 FFF7FEFF 		bl	LCD_PrintInt8
 521              	.LVL77:
  75:.\main.c      **** }
 522              		.loc 1 75 0
 523 007a E1E7     		b	.L43
 524              	.L46:
 525              		.align	2
 526              	.L45:
 527 007c 00000000 		.word	true
 528 0080 00000000 		.word	contador
 529 0084 00000000 		.word	delay
 530 0088 00000000 		.word	.LC0
 531 008c 00000000 		.word	.LANCHOR1
 532 0090 00000000 		.word	Potential
 533 0094 00000000 		.word	.LANCHOR0
 534              		.cfi_endproc
 535              	.LFE63:
 536              		.size	main, .-main
 537              		.comm	MyArray,512,4
 538              		.comm	signal,4,4
 539              		.global	ya_toma
 540              		.global	i
 541              		.comm	lecturas2,44,4
 542              		.comm	lecturas1,44,4
 543              		.global	sensibilidad
 544              		.global	mueve
 545              		.global	width
 546              		.comm	mensaje,1,1
 547              		.global	mov
 548              		.global	distmeas2
 549              		.global	TimeDistMeas2
 550              		.comm	dispbuff,20,4
 551              		.global	distmeas
 552              		.global	TimeDistMeas
 553              		.comm	delay,1,1
 554              		.comm	true,1,1
 555              		.comm	contador,1,1
 556              		.comm	LCD_OutputString,1,1
 557              		.comm	Width,1,1
 558              		.comm	Potential,1,1
 559              		.data
 560              		.align	2
 561              		.set	.LANCHOR1,. + 0
 562              		.type	sensibilidad, %object
 563              		.size	sensibilidad, 4
 564              	sensibilidad:
 565 0000 05000000 		.word	5
 566              		.type	mueve, %object
 567              		.size	mueve, 4
ARM GAS  C:\Users\JOSEAN~1\AppData\Local\Temp\ccuDf7uk.s 			page 15


 568              	mueve:
 569 0004 01000000 		.word	1
 570              		.section	.rodata.str1.4,"aMS",%progbits,1
 571              		.align	2
 572              	.LC0:
 573 0000 53656E73 		.ascii	"Sensibilidad:\000"
 573      6962696C 
 573      69646164 
 573      3A00
 574 000e 0000     		.bss
 575              		.align	2
 576              		.set	.LANCHOR0,. + 0
 577              		.type	TimeDistMeas, %object
 578              		.size	TimeDistMeas, 2
 579              	TimeDistMeas:
 580 0000 0000     		.space	2
 581 0002 0000     		.space	2
 582              		.type	distmeas, %object
 583              		.size	distmeas, 4
 584              	distmeas:
 585 0004 00000000 		.space	4
 586              		.type	ya_toma, %object
 587              		.size	ya_toma, 4
 588              	ya_toma:
 589 0008 00000000 		.space	4
 590              		.type	i, %object
 591              		.size	i, 4
 592              	i:
 593 000c 00000000 		.space	4
 594              		.type	distmeas2, %object
 595              		.size	distmeas2, 4
 596              	distmeas2:
 597 0010 00000000 		.space	4
 598              		.type	width, %object
 599              		.size	width, 4
 600              	width:
 601 0014 00000000 		.space	4
 602              		.type	mov, %object
 603              		.size	mov, 4
 604              	mov:
 605 0018 00000000 		.space	4
 606              		.type	TimeDistMeas2, %object
 607              		.size	TimeDistMeas2, 2
 608              	TimeDistMeas2:
 609 001c 0000     		.space	2
 610 001e 0000     		.text
 611              	.Letext0:
 612              		.file 2 "c:\\program files (x86)\\cypress\\psoc creator\\3.3\\psoc creator\\import\\gnu\\arm\\4.9.
 613              		.file 3 "c:\\program files (x86)\\cypress\\psoc creator\\3.3\\psoc creator\\import\\gnu\\arm\\4.9.
 614              		.file 4 "Generated_Source\\PSoC5/cytypes.h"
 615              		.file 5 "Generated_Source\\PSoC5/core_cm3.h"
 616              		.file 6 "Generated_Source\\PSoC5/Triggen.h"
 617              		.file 7 "Generated_Source\\PSoC5/CyLib.h"
 618              		.file 8 "Generated_Source\\PSoC5/DistOutHCSRO4.h"
 619              		.file 9 "Generated_Source\\PSoC5/TimeDistMeas.h"
 620              		.file 10 "Generated_Source\\PSoC5/foto.h"
 621              		.file 11 "Generated_Source\\PSoC5/ADC.h"
ARM GAS  C:\Users\JOSEAN~1\AppData\Local\Temp\ccuDf7uk.s 			page 16


 622              		.file 12 "Generated_Source\\PSoC5/LCD.h"