ARM GAS  C:\Users\JOSEAN~1\AppData\Local\Temp\cciWidb8.s 			page 1


   1              		.syntax unified
   2              		.cpu cortex-m3
   3              		.fpu softvfp
   4              		.eabi_attribute 20, 1
   5              		.eabi_attribute 21, 1
   6              		.eabi_attribute 23, 3
   7              		.eabi_attribute 24, 1
   8              		.eabi_attribute 25, 1
   9              		.eabi_attribute 26, 1
  10              		.eabi_attribute 30, 2
  11              		.eabi_attribute 34, 1
  12              		.eabi_attribute 18, 4
  13              		.thumb
  14              		.file	"cyfitter_cfg.c"
  15              		.text
  16              	.Ltext0:
  17              		.cfi_sections	.debug_frame
  18              		.section	.text.SetAnalogRoutingPumps,"ax",%progbits
  19              		.align	2
  20              		.global	SetAnalogRoutingPumps
  21              		.thumb
  22              		.thumb_func
  23              		.type	SetAnalogRoutingPumps, %function
  24              	SetAnalogRoutingPumps:
  25              	.LFB7:
  26              		.file 1 ".\\Generated_Source\\PSoC5\\cyfitter_cfg.c"
   1:.\Generated_Source\PSoC5/cyfitter_cfg.c **** /*******************************************************************************
   2:.\Generated_Source\PSoC5/cyfitter_cfg.c **** * File Name: cyfitter_cfg.c
   3:.\Generated_Source\PSoC5/cyfitter_cfg.c **** * 
   4:.\Generated_Source\PSoC5/cyfitter_cfg.c **** * PSoC Creator  3.3 CP3
   5:.\Generated_Source\PSoC5/cyfitter_cfg.c **** *
   6:.\Generated_Source\PSoC5/cyfitter_cfg.c **** * Description:
   7:.\Generated_Source\PSoC5/cyfitter_cfg.c **** * This file contains device initialization code.
   8:.\Generated_Source\PSoC5/cyfitter_cfg.c **** * Except for the user defined sections in CyClockStartupError(), this file should not be modified.
   9:.\Generated_Source\PSoC5/cyfitter_cfg.c **** * This file is automatically generated by PSoC Creator.
  10:.\Generated_Source\PSoC5/cyfitter_cfg.c **** *
  11:.\Generated_Source\PSoC5/cyfitter_cfg.c **** ********************************************************************************
  12:.\Generated_Source\PSoC5/cyfitter_cfg.c **** * Copyright (c) 2007-2016 Cypress Semiconductor.  All rights reserved.
  13:.\Generated_Source\PSoC5/cyfitter_cfg.c **** * You may use this file only in accordance with the license, terms, conditions, 
  14:.\Generated_Source\PSoC5/cyfitter_cfg.c **** * disclaimers, and limitations in the end user license agreement accompanying 
  15:.\Generated_Source\PSoC5/cyfitter_cfg.c **** * the software package with which this file was provided.
  16:.\Generated_Source\PSoC5/cyfitter_cfg.c **** ********************************************************************************/
  17:.\Generated_Source\PSoC5/cyfitter_cfg.c **** 
  18:.\Generated_Source\PSoC5/cyfitter_cfg.c **** #include <string.h>
  19:.\Generated_Source\PSoC5/cyfitter_cfg.c **** #include "cytypes.h"
  20:.\Generated_Source\PSoC5/cyfitter_cfg.c **** #include "cydevice_trm.h"
  21:.\Generated_Source\PSoC5/cyfitter_cfg.c **** #include "cyfitter.h"
  22:.\Generated_Source\PSoC5/cyfitter_cfg.c **** #include "CyLib.h"
  23:.\Generated_Source\PSoC5/cyfitter_cfg.c **** #include "cyfitter_cfg.h"
  24:.\Generated_Source\PSoC5/cyfitter_cfg.c **** 
  25:.\Generated_Source\PSoC5/cyfitter_cfg.c **** #define CY_NEED_CYCLOCKSTARTUPERROR 1
  26:.\Generated_Source\PSoC5/cyfitter_cfg.c **** 
  27:.\Generated_Source\PSoC5/cyfitter_cfg.c **** 
  28:.\Generated_Source\PSoC5/cyfitter_cfg.c **** #if defined(__GNUC__) || defined(__ARMCC_VERSION)
  29:.\Generated_Source\PSoC5/cyfitter_cfg.c ****     #define CYPACKED 
  30:.\Generated_Source\PSoC5/cyfitter_cfg.c ****     #define CYPACKED_ATTR __attribute__ ((packed))
  31:.\Generated_Source\PSoC5/cyfitter_cfg.c ****     #define CYALIGNED __attribute__ ((aligned))
ARM GAS  C:\Users\JOSEAN~1\AppData\Local\Temp\cciWidb8.s 			page 2


  32:.\Generated_Source\PSoC5/cyfitter_cfg.c ****     #define CY_CFG_UNUSED __attribute__ ((unused))
  33:.\Generated_Source\PSoC5/cyfitter_cfg.c ****     #ifndef CY_CFG_SECTION
  34:.\Generated_Source\PSoC5/cyfitter_cfg.c ****         #define CY_CFG_SECTION __attribute__ ((section(".psocinit")))
  35:.\Generated_Source\PSoC5/cyfitter_cfg.c ****     #endif
  36:.\Generated_Source\PSoC5/cyfitter_cfg.c ****     
  37:.\Generated_Source\PSoC5/cyfitter_cfg.c ****     #if defined(__ARMCC_VERSION)
  38:.\Generated_Source\PSoC5/cyfitter_cfg.c ****         #define CY_CFG_MEMORY_BARRIER() __memory_changed()
  39:.\Generated_Source\PSoC5/cyfitter_cfg.c ****     #else
  40:.\Generated_Source\PSoC5/cyfitter_cfg.c ****         #define CY_CFG_MEMORY_BARRIER() __sync_synchronize()
  41:.\Generated_Source\PSoC5/cyfitter_cfg.c ****     #endif
  42:.\Generated_Source\PSoC5/cyfitter_cfg.c ****     
  43:.\Generated_Source\PSoC5/cyfitter_cfg.c **** #elif defined(__ICCARM__)
  44:.\Generated_Source\PSoC5/cyfitter_cfg.c ****     #include <intrinsics.h>
  45:.\Generated_Source\PSoC5/cyfitter_cfg.c **** 
  46:.\Generated_Source\PSoC5/cyfitter_cfg.c ****     #define CYPACKED __packed
  47:.\Generated_Source\PSoC5/cyfitter_cfg.c ****     #define CYPACKED_ATTR 
  48:.\Generated_Source\PSoC5/cyfitter_cfg.c ****     #define CYALIGNED _Pragma("data_alignment=4")
  49:.\Generated_Source\PSoC5/cyfitter_cfg.c ****     #define CY_CFG_UNUSED _Pragma("diag_suppress=Pe177")
  50:.\Generated_Source\PSoC5/cyfitter_cfg.c ****     #define CY_CFG_SECTION _Pragma("location=\".psocinit\"")
  51:.\Generated_Source\PSoC5/cyfitter_cfg.c ****     
  52:.\Generated_Source\PSoC5/cyfitter_cfg.c ****     #define CY_CFG_MEMORY_BARRIER() __DMB()
  53:.\Generated_Source\PSoC5/cyfitter_cfg.c ****     
  54:.\Generated_Source\PSoC5/cyfitter_cfg.c **** #else
  55:.\Generated_Source\PSoC5/cyfitter_cfg.c ****     #error Unsupported toolchain
  56:.\Generated_Source\PSoC5/cyfitter_cfg.c **** #endif
  57:.\Generated_Source\PSoC5/cyfitter_cfg.c **** 
  58:.\Generated_Source\PSoC5/cyfitter_cfg.c **** 
  59:.\Generated_Source\PSoC5/cyfitter_cfg.c **** CY_CFG_UNUSED
  60:.\Generated_Source\PSoC5/cyfitter_cfg.c **** static void CYMEMZERO(void *s, size_t n);
  61:.\Generated_Source\PSoC5/cyfitter_cfg.c **** CY_CFG_UNUSED
  62:.\Generated_Source\PSoC5/cyfitter_cfg.c **** static void CYMEMZERO(void *s, size_t n)
  63:.\Generated_Source\PSoC5/cyfitter_cfg.c **** {
  64:.\Generated_Source\PSoC5/cyfitter_cfg.c **** 	(void)memset(s, 0, n);
  65:.\Generated_Source\PSoC5/cyfitter_cfg.c **** }
  66:.\Generated_Source\PSoC5/cyfitter_cfg.c **** CY_CFG_UNUSED
  67:.\Generated_Source\PSoC5/cyfitter_cfg.c **** static void CYCONFIGCPY(void *dest, const void *src, size_t n);
  68:.\Generated_Source\PSoC5/cyfitter_cfg.c **** CY_CFG_UNUSED
  69:.\Generated_Source\PSoC5/cyfitter_cfg.c **** static void CYCONFIGCPY(void *dest, const void *src, size_t n)
  70:.\Generated_Source\PSoC5/cyfitter_cfg.c **** {
  71:.\Generated_Source\PSoC5/cyfitter_cfg.c **** 	(void)memcpy(dest, src, n);
  72:.\Generated_Source\PSoC5/cyfitter_cfg.c **** }
  73:.\Generated_Source\PSoC5/cyfitter_cfg.c **** CY_CFG_UNUSED
  74:.\Generated_Source\PSoC5/cyfitter_cfg.c **** static void CYCONFIGCPYCODE(void *dest, const void *src, size_t n);
  75:.\Generated_Source\PSoC5/cyfitter_cfg.c **** CY_CFG_UNUSED
  76:.\Generated_Source\PSoC5/cyfitter_cfg.c **** static void CYCONFIGCPYCODE(void *dest, const void *src, size_t n)
  77:.\Generated_Source\PSoC5/cyfitter_cfg.c **** {
  78:.\Generated_Source\PSoC5/cyfitter_cfg.c **** 	(void)memcpy(dest, src, n);
  79:.\Generated_Source\PSoC5/cyfitter_cfg.c **** }
  80:.\Generated_Source\PSoC5/cyfitter_cfg.c **** 
  81:.\Generated_Source\PSoC5/cyfitter_cfg.c **** 
  82:.\Generated_Source\PSoC5/cyfitter_cfg.c **** 
  83:.\Generated_Source\PSoC5/cyfitter_cfg.c **** /* Clock startup error codes                                                   */
  84:.\Generated_Source\PSoC5/cyfitter_cfg.c **** #define CYCLOCKSTART_NO_ERROR    0u
  85:.\Generated_Source\PSoC5/cyfitter_cfg.c **** #define CYCLOCKSTART_XTAL_ERROR  1u
  86:.\Generated_Source\PSoC5/cyfitter_cfg.c **** #define CYCLOCKSTART_32KHZ_ERROR 2u
  87:.\Generated_Source\PSoC5/cyfitter_cfg.c **** #define CYCLOCKSTART_PLL_ERROR   3u
  88:.\Generated_Source\PSoC5/cyfitter_cfg.c **** 
ARM GAS  C:\Users\JOSEAN~1\AppData\Local\Temp\cciWidb8.s 			page 3


  89:.\Generated_Source\PSoC5/cyfitter_cfg.c **** #ifdef CY_NEED_CYCLOCKSTARTUPERROR
  90:.\Generated_Source\PSoC5/cyfitter_cfg.c **** /*******************************************************************************
  91:.\Generated_Source\PSoC5/cyfitter_cfg.c **** * Function Name: CyClockStartupError
  92:.\Generated_Source\PSoC5/cyfitter_cfg.c **** ********************************************************************************
  93:.\Generated_Source\PSoC5/cyfitter_cfg.c **** * Summary:
  94:.\Generated_Source\PSoC5/cyfitter_cfg.c **** *  If an error is encountered during clock configuration (crystal startup error,
  95:.\Generated_Source\PSoC5/cyfitter_cfg.c **** *  PLL lock error, etc.), the system will end up here.  Unless reimplemented by
  96:.\Generated_Source\PSoC5/cyfitter_cfg.c **** *  the customer, this function will stop in an infinite loop.
  97:.\Generated_Source\PSoC5/cyfitter_cfg.c **** *
  98:.\Generated_Source\PSoC5/cyfitter_cfg.c **** * Parameters:
  99:.\Generated_Source\PSoC5/cyfitter_cfg.c **** *   void
 100:.\Generated_Source\PSoC5/cyfitter_cfg.c **** *
 101:.\Generated_Source\PSoC5/cyfitter_cfg.c **** * Return:
 102:.\Generated_Source\PSoC5/cyfitter_cfg.c **** *   void
 103:.\Generated_Source\PSoC5/cyfitter_cfg.c **** *
 104:.\Generated_Source\PSoC5/cyfitter_cfg.c **** *******************************************************************************/
 105:.\Generated_Source\PSoC5/cyfitter_cfg.c **** CY_CFG_UNUSED
 106:.\Generated_Source\PSoC5/cyfitter_cfg.c **** static void CyClockStartupError(uint8 errorCode);
 107:.\Generated_Source\PSoC5/cyfitter_cfg.c **** CY_CFG_UNUSED
 108:.\Generated_Source\PSoC5/cyfitter_cfg.c **** static void CyClockStartupError(uint8 errorCode)
 109:.\Generated_Source\PSoC5/cyfitter_cfg.c **** {
 110:.\Generated_Source\PSoC5/cyfitter_cfg.c ****     /* To remove the compiler warning if errorCode not used.                */
 111:.\Generated_Source\PSoC5/cyfitter_cfg.c ****     errorCode = errorCode;
 112:.\Generated_Source\PSoC5/cyfitter_cfg.c **** 
 113:.\Generated_Source\PSoC5/cyfitter_cfg.c ****     /* `#START CyClockStartupError` */
 114:.\Generated_Source\PSoC5/cyfitter_cfg.c **** 
 115:.\Generated_Source\PSoC5/cyfitter_cfg.c ****     /* If we have a clock startup error (bad MHz crystal, PLL lock, etc.),  */
 116:.\Generated_Source\PSoC5/cyfitter_cfg.c ****     /* we will end up here to allow the customer to implement something to  */
 117:.\Generated_Source\PSoC5/cyfitter_cfg.c ****     /* deal with the clock condition.                                       */
 118:.\Generated_Source\PSoC5/cyfitter_cfg.c **** 
 119:.\Generated_Source\PSoC5/cyfitter_cfg.c ****     /* `#END` */
 120:.\Generated_Source\PSoC5/cyfitter_cfg.c **** 
 121:.\Generated_Source\PSoC5/cyfitter_cfg.c ****     /* If nothing else, stop here since the clocks have not started         */
 122:.\Generated_Source\PSoC5/cyfitter_cfg.c ****     /* correctly.                                                           */
 123:.\Generated_Source\PSoC5/cyfitter_cfg.c ****     while(1) {}
 124:.\Generated_Source\PSoC5/cyfitter_cfg.c **** }
 125:.\Generated_Source\PSoC5/cyfitter_cfg.c **** #endif
 126:.\Generated_Source\PSoC5/cyfitter_cfg.c **** 
 127:.\Generated_Source\PSoC5/cyfitter_cfg.c **** #define CY_CFG_BASE_ADDR_COUNT 14u
 128:.\Generated_Source\PSoC5/cyfitter_cfg.c **** CYPACKED typedef struct
 129:.\Generated_Source\PSoC5/cyfitter_cfg.c **** {
 130:.\Generated_Source\PSoC5/cyfitter_cfg.c **** 	uint8 offset;
 131:.\Generated_Source\PSoC5/cyfitter_cfg.c **** 	uint8 value;
 132:.\Generated_Source\PSoC5/cyfitter_cfg.c **** } CYPACKED_ATTR cy_cfg_addrvalue_t;
 133:.\Generated_Source\PSoC5/cyfitter_cfg.c **** 
 134:.\Generated_Source\PSoC5/cyfitter_cfg.c **** #define cy_cfg_addr_table ((const uint32 CYFAR *)0x48000000u)
 135:.\Generated_Source\PSoC5/cyfitter_cfg.c **** #define cy_cfg_data_table ((const cy_cfg_addrvalue_t CYFAR *)0x48000038u)
 136:.\Generated_Source\PSoC5/cyfitter_cfg.c **** 
 137:.\Generated_Source\PSoC5/cyfitter_cfg.c **** /* IOPINS0_7 Address: CYREG_PRT12_DR Size (bytes): 10 */
 138:.\Generated_Source\PSoC5/cyfitter_cfg.c **** #define BS_IOPINS0_7_VAL ((const uint8 CYFAR *)0x480000B4u)
 139:.\Generated_Source\PSoC5/cyfitter_cfg.c **** 
 140:.\Generated_Source\PSoC5/cyfitter_cfg.c **** /* IOPINS1_7 Address: CYREG_PRT12_DR + 0x0000000Bu Size (bytes): 5 */
 141:.\Generated_Source\PSoC5/cyfitter_cfg.c **** #define BS_IOPINS1_7_VAL ((const uint8 CYFAR *)0x480000C0u)
 142:.\Generated_Source\PSoC5/cyfitter_cfg.c **** 
 143:.\Generated_Source\PSoC5/cyfitter_cfg.c **** /* IOPINS0_2 Address: CYREG_PRT2_DM0 Size (bytes): 8 */
 144:.\Generated_Source\PSoC5/cyfitter_cfg.c **** #define BS_IOPINS0_2_VAL ((const uint8 CYFAR *)0x480000C8u)
 145:.\Generated_Source\PSoC5/cyfitter_cfg.c **** 
ARM GAS  C:\Users\JOSEAN~1\AppData\Local\Temp\cciWidb8.s 			page 4


 146:.\Generated_Source\PSoC5/cyfitter_cfg.c **** 
 147:.\Generated_Source\PSoC5/cyfitter_cfg.c **** /*******************************************************************************
 148:.\Generated_Source\PSoC5/cyfitter_cfg.c **** * Function Name: cfg_write_bytes32
 149:.\Generated_Source\PSoC5/cyfitter_cfg.c **** ********************************************************************************
 150:.\Generated_Source\PSoC5/cyfitter_cfg.c **** * Summary:
 151:.\Generated_Source\PSoC5/cyfitter_cfg.c **** *  This function is used for setting up the chip configuration areas that
 152:.\Generated_Source\PSoC5/cyfitter_cfg.c **** *  contain relatively sparse data.
 153:.\Generated_Source\PSoC5/cyfitter_cfg.c **** *
 154:.\Generated_Source\PSoC5/cyfitter_cfg.c **** * Parameters:
 155:.\Generated_Source\PSoC5/cyfitter_cfg.c **** *   void
 156:.\Generated_Source\PSoC5/cyfitter_cfg.c **** *
 157:.\Generated_Source\PSoC5/cyfitter_cfg.c **** * Return:
 158:.\Generated_Source\PSoC5/cyfitter_cfg.c **** *   void
 159:.\Generated_Source\PSoC5/cyfitter_cfg.c **** *
 160:.\Generated_Source\PSoC5/cyfitter_cfg.c **** *******************************************************************************/
 161:.\Generated_Source\PSoC5/cyfitter_cfg.c **** static void cfg_write_bytes32(const uint32 addr_table[], const cy_cfg_addrvalue_t data_table[]);
 162:.\Generated_Source\PSoC5/cyfitter_cfg.c **** static void cfg_write_bytes32(const uint32 addr_table[], const cy_cfg_addrvalue_t data_table[])
 163:.\Generated_Source\PSoC5/cyfitter_cfg.c **** {
 164:.\Generated_Source\PSoC5/cyfitter_cfg.c **** 	/* For 32-bit little-endian architectures */
 165:.\Generated_Source\PSoC5/cyfitter_cfg.c **** 	uint32 i, j = 0u;
 166:.\Generated_Source\PSoC5/cyfitter_cfg.c **** 	for (i = 0u; i < CY_CFG_BASE_ADDR_COUNT; i++)
 167:.\Generated_Source\PSoC5/cyfitter_cfg.c **** 	{
 168:.\Generated_Source\PSoC5/cyfitter_cfg.c **** 		uint32 baseAddr = addr_table[i];
 169:.\Generated_Source\PSoC5/cyfitter_cfg.c **** 		uint8 count = (uint8)baseAddr;
 170:.\Generated_Source\PSoC5/cyfitter_cfg.c **** 		baseAddr &= 0xFFFFFF00u;
 171:.\Generated_Source\PSoC5/cyfitter_cfg.c **** 		while (count != 0u)
 172:.\Generated_Source\PSoC5/cyfitter_cfg.c **** 		{
 173:.\Generated_Source\PSoC5/cyfitter_cfg.c **** 			CY_SET_XTND_REG8((void CYFAR *)(baseAddr + data_table[j].offset), data_table[j].value);
 174:.\Generated_Source\PSoC5/cyfitter_cfg.c **** 			j++;
 175:.\Generated_Source\PSoC5/cyfitter_cfg.c **** 			count--;
 176:.\Generated_Source\PSoC5/cyfitter_cfg.c **** 		}
 177:.\Generated_Source\PSoC5/cyfitter_cfg.c **** 	}
 178:.\Generated_Source\PSoC5/cyfitter_cfg.c **** }
 179:.\Generated_Source\PSoC5/cyfitter_cfg.c **** 
 180:.\Generated_Source\PSoC5/cyfitter_cfg.c **** /*******************************************************************************
 181:.\Generated_Source\PSoC5/cyfitter_cfg.c **** * Function Name: ClockSetup
 182:.\Generated_Source\PSoC5/cyfitter_cfg.c **** ********************************************************************************
 183:.\Generated_Source\PSoC5/cyfitter_cfg.c **** *
 184:.\Generated_Source\PSoC5/cyfitter_cfg.c **** * Summary:
 185:.\Generated_Source\PSoC5/cyfitter_cfg.c **** *  Performs the initialization of all of the clocks in the device based on the
 186:.\Generated_Source\PSoC5/cyfitter_cfg.c **** *  settings in the Clock tab of the DWR.  This includes enabling the requested
 187:.\Generated_Source\PSoC5/cyfitter_cfg.c **** *  clocks and setting the necessary dividers to produce the desired frequency. 
 188:.\Generated_Source\PSoC5/cyfitter_cfg.c **** *
 189:.\Generated_Source\PSoC5/cyfitter_cfg.c **** * Parameters:
 190:.\Generated_Source\PSoC5/cyfitter_cfg.c **** *  void
 191:.\Generated_Source\PSoC5/cyfitter_cfg.c **** *
 192:.\Generated_Source\PSoC5/cyfitter_cfg.c **** * Return:
 193:.\Generated_Source\PSoC5/cyfitter_cfg.c **** *  void
 194:.\Generated_Source\PSoC5/cyfitter_cfg.c **** *
 195:.\Generated_Source\PSoC5/cyfitter_cfg.c **** *******************************************************************************/
 196:.\Generated_Source\PSoC5/cyfitter_cfg.c **** static void ClockSetup(void);
 197:.\Generated_Source\PSoC5/cyfitter_cfg.c **** static void ClockSetup(void)
 198:.\Generated_Source\PSoC5/cyfitter_cfg.c **** {
 199:.\Generated_Source\PSoC5/cyfitter_cfg.c **** 	uint32 timeout;
 200:.\Generated_Source\PSoC5/cyfitter_cfg.c **** 	uint8 pllLock;
 201:.\Generated_Source\PSoC5/cyfitter_cfg.c **** 
 202:.\Generated_Source\PSoC5/cyfitter_cfg.c **** 
ARM GAS  C:\Users\JOSEAN~1\AppData\Local\Temp\cciWidb8.s 			page 5


 203:.\Generated_Source\PSoC5/cyfitter_cfg.c **** 	/* Configure ILO based on settings from Clock DWR */
 204:.\Generated_Source\PSoC5/cyfitter_cfg.c **** 	CY_SET_XTND_REG8((void CYFAR *)(CYREG_SLOWCLK_ILO_CR0), 0x02u);
 205:.\Generated_Source\PSoC5/cyfitter_cfg.c **** 	CY_SET_XTND_REG8((void CYFAR *)(CYREG_CLKDIST_CR), 0x08u);
 206:.\Generated_Source\PSoC5/cyfitter_cfg.c **** 
 207:.\Generated_Source\PSoC5/cyfitter_cfg.c **** 	/* Configure IMO based on settings from Clock DWR */
 208:.\Generated_Source\PSoC5/cyfitter_cfg.c **** 	CY_SET_XTND_REG8((void CYFAR *)(CYREG_FASTCLK_IMO_CR), 0x03u);
 209:.\Generated_Source\PSoC5/cyfitter_cfg.c **** 	CY_SET_XTND_REG8((void CYFAR *)(CYREG_IMO_TR1), (CY_GET_XTND_REG8((void CYFAR *)CYREG_FLSHID_CUST_
 210:.\Generated_Source\PSoC5/cyfitter_cfg.c **** 
 211:.\Generated_Source\PSoC5/cyfitter_cfg.c **** 	/* Configure PLL based on settings from Clock DWR */
 212:.\Generated_Source\PSoC5/cyfitter_cfg.c **** 	CY_SET_XTND_REG16((void CYFAR *)(CYREG_FASTCLK_PLL_P), 0x0010u);
 213:.\Generated_Source\PSoC5/cyfitter_cfg.c **** 	CY_SET_XTND_REG16((void CYFAR *)(CYREG_FASTCLK_PLL_CFG0), 0x1251u);
 214:.\Generated_Source\PSoC5/cyfitter_cfg.c **** 	/* Wait up to 250us for the PLL to lock */
 215:.\Generated_Source\PSoC5/cyfitter_cfg.c **** 	pllLock = 0u;
 216:.\Generated_Source\PSoC5/cyfitter_cfg.c **** 	for (timeout = 250u / 10u; (timeout > 0u) && (pllLock != 0x03u); timeout--)
 217:.\Generated_Source\PSoC5/cyfitter_cfg.c **** 	{ 
 218:.\Generated_Source\PSoC5/cyfitter_cfg.c **** 		pllLock = 0x03u & ((uint8)((uint8)pllLock << 1) | ((CY_GET_XTND_REG8((void CYFAR *)CYREG_FASTCLK_
 219:.\Generated_Source\PSoC5/cyfitter_cfg.c **** 		CyDelayCycles(10u * 48u); /* Delay 10us based on 48MHz clock */
 220:.\Generated_Source\PSoC5/cyfitter_cfg.c **** 	}
 221:.\Generated_Source\PSoC5/cyfitter_cfg.c **** 	/* If we ran out of time the PLL didn't lock so go to the error function */
 222:.\Generated_Source\PSoC5/cyfitter_cfg.c **** 	if (timeout == 0u)
 223:.\Generated_Source\PSoC5/cyfitter_cfg.c **** 	{
 224:.\Generated_Source\PSoC5/cyfitter_cfg.c **** 		CyClockStartupError(CYCLOCKSTART_PLL_ERROR);
 225:.\Generated_Source\PSoC5/cyfitter_cfg.c **** 	}
 226:.\Generated_Source\PSoC5/cyfitter_cfg.c **** 
 227:.\Generated_Source\PSoC5/cyfitter_cfg.c **** 	/* Configure Bus/Master Clock based on settings from Clock DWR */
 228:.\Generated_Source\PSoC5/cyfitter_cfg.c **** 	CY_SET_XTND_REG16((void CYFAR *)(CYREG_CLKDIST_MSTR0), 0x0100u);
 229:.\Generated_Source\PSoC5/cyfitter_cfg.c **** 	CY_SET_XTND_REG8((void CYFAR *)(CYREG_CLKDIST_MSTR0), 0x07u);
 230:.\Generated_Source\PSoC5/cyfitter_cfg.c **** 	CY_SET_XTND_REG8((void CYFAR *)(CYREG_CLKDIST_BCFG0), 0x00u);
 231:.\Generated_Source\PSoC5/cyfitter_cfg.c **** 	CY_SET_XTND_REG8((void CYFAR *)(CYREG_CLKDIST_BCFG2), 0x48u);
 232:.\Generated_Source\PSoC5/cyfitter_cfg.c **** 	CY_SET_XTND_REG8((void CYFAR *)(CYREG_CLKDIST_MSTR0), 0x00u);
 233:.\Generated_Source\PSoC5/cyfitter_cfg.c **** 	CY_SET_XTND_REG8((void CYFAR *)(CYREG_CLKDIST_LD), 0x02u);
 234:.\Generated_Source\PSoC5/cyfitter_cfg.c **** }
 235:.\Generated_Source\PSoC5/cyfitter_cfg.c **** 
 236:.\Generated_Source\PSoC5/cyfitter_cfg.c **** 
 237:.\Generated_Source\PSoC5/cyfitter_cfg.c **** /* Analog API Functions */
 238:.\Generated_Source\PSoC5/cyfitter_cfg.c **** 
 239:.\Generated_Source\PSoC5/cyfitter_cfg.c **** 
 240:.\Generated_Source\PSoC5/cyfitter_cfg.c **** /*******************************************************************************
 241:.\Generated_Source\PSoC5/cyfitter_cfg.c **** * Function Name: AnalogSetDefault
 242:.\Generated_Source\PSoC5/cyfitter_cfg.c **** ********************************************************************************
 243:.\Generated_Source\PSoC5/cyfitter_cfg.c **** *
 244:.\Generated_Source\PSoC5/cyfitter_cfg.c **** * Summary:
 245:.\Generated_Source\PSoC5/cyfitter_cfg.c **** *  Sets up the analog portions of the chip to default values based on chip
 246:.\Generated_Source\PSoC5/cyfitter_cfg.c **** *  configuration options from the project.
 247:.\Generated_Source\PSoC5/cyfitter_cfg.c **** *
 248:.\Generated_Source\PSoC5/cyfitter_cfg.c **** * Parameters:
 249:.\Generated_Source\PSoC5/cyfitter_cfg.c **** *  void
 250:.\Generated_Source\PSoC5/cyfitter_cfg.c **** *
 251:.\Generated_Source\PSoC5/cyfitter_cfg.c **** * Return:
 252:.\Generated_Source\PSoC5/cyfitter_cfg.c **** *  void
 253:.\Generated_Source\PSoC5/cyfitter_cfg.c **** *
 254:.\Generated_Source\PSoC5/cyfitter_cfg.c **** *******************************************************************************/
 255:.\Generated_Source\PSoC5/cyfitter_cfg.c **** static void AnalogSetDefault(void);
 256:.\Generated_Source\PSoC5/cyfitter_cfg.c **** static void AnalogSetDefault(void)
 257:.\Generated_Source\PSoC5/cyfitter_cfg.c **** {
 258:.\Generated_Source\PSoC5/cyfitter_cfg.c **** 	uint8 bg_xover_inl_trim = CY_GET_XTND_REG8((void CYFAR *)(CYREG_FLSHID_MFG_CFG_BG_XOVER_INL_TRIM +
 259:.\Generated_Source\PSoC5/cyfitter_cfg.c **** 	CY_SET_XTND_REG8((void CYFAR *)(CYREG_BG_DFT0), (bg_xover_inl_trim & 0x07u));
ARM GAS  C:\Users\JOSEAN~1\AppData\Local\Temp\cciWidb8.s 			page 6


 260:.\Generated_Source\PSoC5/cyfitter_cfg.c **** 	CY_SET_XTND_REG8((void CYFAR *)(CYREG_BG_DFT1), ((bg_xover_inl_trim >> 4) & 0x0Fu));
 261:.\Generated_Source\PSoC5/cyfitter_cfg.c **** 	CY_SET_XTND_REG8((void CYFAR *)CYREG_PUMP_CR0, 0x44u);
 262:.\Generated_Source\PSoC5/cyfitter_cfg.c **** }
 263:.\Generated_Source\PSoC5/cyfitter_cfg.c **** 
 264:.\Generated_Source\PSoC5/cyfitter_cfg.c **** 
 265:.\Generated_Source\PSoC5/cyfitter_cfg.c **** /*******************************************************************************
 266:.\Generated_Source\PSoC5/cyfitter_cfg.c **** * Function Name: SetAnalogRoutingPumps
 267:.\Generated_Source\PSoC5/cyfitter_cfg.c **** ********************************************************************************
 268:.\Generated_Source\PSoC5/cyfitter_cfg.c **** *
 269:.\Generated_Source\PSoC5/cyfitter_cfg.c **** * Summary:
 270:.\Generated_Source\PSoC5/cyfitter_cfg.c **** * Enables or disables the analog pumps feeding analog routing switches.
 271:.\Generated_Source\PSoC5/cyfitter_cfg.c **** * Intended to be called at startup, based on the Vdda system configuration;
 272:.\Generated_Source\PSoC5/cyfitter_cfg.c **** * may be called during operation when the user informs us that the Vdda voltage
 273:.\Generated_Source\PSoC5/cyfitter_cfg.c **** * crossed the pump threshold.
 274:.\Generated_Source\PSoC5/cyfitter_cfg.c **** *
 275:.\Generated_Source\PSoC5/cyfitter_cfg.c **** * Parameters:
 276:.\Generated_Source\PSoC5/cyfitter_cfg.c **** *  enabled - 1 to enable the pumps, 0 to disable the pumps
 277:.\Generated_Source\PSoC5/cyfitter_cfg.c **** *
 278:.\Generated_Source\PSoC5/cyfitter_cfg.c **** * Return:
 279:.\Generated_Source\PSoC5/cyfitter_cfg.c **** *  void
 280:.\Generated_Source\PSoC5/cyfitter_cfg.c **** *
 281:.\Generated_Source\PSoC5/cyfitter_cfg.c **** *******************************************************************************/
 282:.\Generated_Source\PSoC5/cyfitter_cfg.c **** void SetAnalogRoutingPumps(uint8 enabled)
 283:.\Generated_Source\PSoC5/cyfitter_cfg.c **** {
  27              		.loc 1 283 0
  28              		.cfi_startproc
  29              		@ args = 0, pretend = 0, frame = 0
  30              		@ frame_needed = 0, uses_anonymous_args = 0
  31              		@ link register save eliminated.
  32              	.LVL0:
 284:.\Generated_Source\PSoC5/cyfitter_cfg.c **** 	uint8 regValue = CY_GET_XTND_REG8((void CYFAR *)CYREG_PUMP_CR0);
  33              		.loc 1 284 0
  34 0000 024A     		ldr	r2, .L2
  35 0002 1378     		ldrb	r3, [r2]	@ zero_extendqisi2
  36 0004 DBB2     		uxtb	r3, r3
  37              	.LVL1:
 285:.\Generated_Source\PSoC5/cyfitter_cfg.c **** 	if (enabled != 0u)
 286:.\Generated_Source\PSoC5/cyfitter_cfg.c **** 	{
 287:.\Generated_Source\PSoC5/cyfitter_cfg.c **** 		regValue |= 0x00u;
 288:.\Generated_Source\PSoC5/cyfitter_cfg.c **** 	}
 289:.\Generated_Source\PSoC5/cyfitter_cfg.c **** 	else
 290:.\Generated_Source\PSoC5/cyfitter_cfg.c **** 	{
 291:.\Generated_Source\PSoC5/cyfitter_cfg.c **** 		regValue &= (uint8)~0x00u;
 292:.\Generated_Source\PSoC5/cyfitter_cfg.c **** 	}
 293:.\Generated_Source\PSoC5/cyfitter_cfg.c **** 	CY_SET_XTND_REG8((void CYFAR *)CYREG_PUMP_CR0, regValue);
  38              		.loc 1 293 0
  39 0006 1370     		strb	r3, [r2]
  40 0008 7047     		bx	lr
  41              	.L3:
  42 000a 00BF     		.align	2
  43              	.L2:
  44 000c 76580040 		.word	1073764470
  45              		.cfi_endproc
  46              	.LFE7:
  47              		.size	SetAnalogRoutingPumps, .-SetAnalogRoutingPumps
  48              		.section	.text.cyfitter_cfg,"ax",%progbits
  49              		.align	2
ARM GAS  C:\Users\JOSEAN~1\AppData\Local\Temp\cciWidb8.s 			page 7


  50              		.global	cyfitter_cfg
  51              		.thumb
  52              		.thumb_func
  53              		.type	cyfitter_cfg, %function
  54              	cyfitter_cfg:
  55              	.LFB8:
 294:.\Generated_Source\PSoC5/cyfitter_cfg.c **** }
 295:.\Generated_Source\PSoC5/cyfitter_cfg.c **** 
 296:.\Generated_Source\PSoC5/cyfitter_cfg.c **** #define CY_AMUX_UNUSED CYREG_BOOST_SR
 297:.\Generated_Source\PSoC5/cyfitter_cfg.c **** 
 298:.\Generated_Source\PSoC5/cyfitter_cfg.c **** 
 299:.\Generated_Source\PSoC5/cyfitter_cfg.c **** /*******************************************************************************
 300:.\Generated_Source\PSoC5/cyfitter_cfg.c **** * Function Name: cyfitter_cfg
 301:.\Generated_Source\PSoC5/cyfitter_cfg.c **** ********************************************************************************
 302:.\Generated_Source\PSoC5/cyfitter_cfg.c **** * Summary:
 303:.\Generated_Source\PSoC5/cyfitter_cfg.c **** *  This function is called by the start-up code for the selected device. It
 304:.\Generated_Source\PSoC5/cyfitter_cfg.c **** *  performs all of the necessary device configuration based on the design
 305:.\Generated_Source\PSoC5/cyfitter_cfg.c **** *  settings.  This includes settings from the Design Wide Resources (DWR) such
 306:.\Generated_Source\PSoC5/cyfitter_cfg.c **** *  as Clocks and Pins as well as any component configuration that is necessary.
 307:.\Generated_Source\PSoC5/cyfitter_cfg.c **** *
 308:.\Generated_Source\PSoC5/cyfitter_cfg.c **** * Parameters:  
 309:.\Generated_Source\PSoC5/cyfitter_cfg.c **** *   void
 310:.\Generated_Source\PSoC5/cyfitter_cfg.c **** *
 311:.\Generated_Source\PSoC5/cyfitter_cfg.c **** * Return:
 312:.\Generated_Source\PSoC5/cyfitter_cfg.c **** *   void
 313:.\Generated_Source\PSoC5/cyfitter_cfg.c **** *
 314:.\Generated_Source\PSoC5/cyfitter_cfg.c **** *******************************************************************************/
 315:.\Generated_Source\PSoC5/cyfitter_cfg.c **** 
 316:.\Generated_Source\PSoC5/cyfitter_cfg.c **** void cyfitter_cfg(void)
 317:.\Generated_Source\PSoC5/cyfitter_cfg.c **** {
  56              		.loc 1 317 0
  57              		.cfi_startproc
  58              		@ args = 0, pretend = 0, frame = 0
  59              		@ frame_needed = 0, uses_anonymous_args = 0
  60 0000 2DE9F84F 		push	{r3, r4, r5, r6, r7, r8, r9, r10, fp, lr}
  61              		.cfi_def_cfa_offset 40
  62              		.cfi_offset 3, -40
  63              		.cfi_offset 4, -36
  64              		.cfi_offset 5, -32
  65              		.cfi_offset 6, -28
  66              		.cfi_offset 7, -24
  67              		.cfi_offset 8, -20
  68              		.cfi_offset 9, -16
  69              		.cfi_offset 10, -12
  70              		.cfi_offset 11, -8
  71              		.cfi_offset 14, -4
 318:.\Generated_Source\PSoC5/cyfitter_cfg.c **** #ifdef CYGlobalIntDisable
 319:.\Generated_Source\PSoC5/cyfitter_cfg.c **** 	/* Disable interrupts by default. Let user enable if/when they want. */
 320:.\Generated_Source\PSoC5/cyfitter_cfg.c **** 	CYGlobalIntDisable
  72              		.loc 1 320 0
  73              	@ 320 ".\Generated_Source\PSoC5\cyfitter_cfg.c" 1
  74 0004 72B6     		CPSID   i
  75              	@ 0 "" 2
  76              		.thumb
  77 0006 694E     		ldr	r6, .L27
 321:.\Generated_Source\PSoC5/cyfitter_cfg.c **** #endif
 322:.\Generated_Source\PSoC5/cyfitter_cfg.c **** 
ARM GAS  C:\Users\JOSEAN~1\AppData\Local\Temp\cciWidb8.s 			page 8


 323:.\Generated_Source\PSoC5/cyfitter_cfg.c **** 	/* Enable/Disable Debug functionality based on settings from System DWR */
 324:.\Generated_Source\PSoC5/cyfitter_cfg.c **** 	CY_SET_XTND_REG8((void CYFAR *)CYREG_MLOGIC_DEBUG, (CY_GET_XTND_REG8((void CYFAR *)CYREG_MLOGIC_DE
  78              		.loc 1 324 0
  79 0008 694A     		ldr	r2, .L27+4
  80 000a 3546     		mov	r5, r6
  81 000c 1378     		ldrb	r3, [r2]	@ zero_extendqisi2
  82 000e 0024     		movs	r4, #0
  83 0010 43F00403 		orr	r3, r3, #4
  84 0014 1370     		strb	r3, [r2]
  85              	.LVL2:
  86              	.L5:
  87              	.LBB38:
  88              	.LBB39:
 325:.\Generated_Source\PSoC5/cyfitter_cfg.c **** 
 326:.\Generated_Source\PSoC5/cyfitter_cfg.c **** 	{
 327:.\Generated_Source\PSoC5/cyfitter_cfg.c **** 
 328:.\Generated_Source\PSoC5/cyfitter_cfg.c **** 		CYPACKED typedef struct {
 329:.\Generated_Source\PSoC5/cyfitter_cfg.c **** 			void CYFAR *address;
 330:.\Generated_Source\PSoC5/cyfitter_cfg.c **** 			uint16 size;
 331:.\Generated_Source\PSoC5/cyfitter_cfg.c **** 		} CYPACKED_ATTR cfg_memset_t;
 332:.\Generated_Source\PSoC5/cyfitter_cfg.c **** 
 333:.\Generated_Source\PSoC5/cyfitter_cfg.c **** 		static const cfg_memset_t CYCODE cfg_memset_list [] = {
 334:.\Generated_Source\PSoC5/cyfitter_cfg.c **** 			/* address, size */
 335:.\Generated_Source\PSoC5/cyfitter_cfg.c **** 			{(void CYFAR *)(CYREG_I2C_XCFG), 25u},
 336:.\Generated_Source\PSoC5/cyfitter_cfg.c **** 			{(void CYFAR *)(CYREG_PRT0_DR), 32u},
 337:.\Generated_Source\PSoC5/cyfitter_cfg.c **** 			{(void CYFAR *)(CYREG_PRT3_DR), 64u},
 338:.\Generated_Source\PSoC5/cyfitter_cfg.c **** 			{(void CYFAR *)(CYREG_PRT15_DR), 16u},
 339:.\Generated_Source\PSoC5/cyfitter_cfg.c **** 			{(void CYFAR *)(CYDEV_UCFG_B0_P0_U0_BASE), 4096u},
 340:.\Generated_Source\PSoC5/cyfitter_cfg.c **** 			{(void CYFAR *)(CYDEV_UCFG_B1_P2_U0_BASE), 2048u},
 341:.\Generated_Source\PSoC5/cyfitter_cfg.c **** 			{(void CYFAR *)(CYDEV_UCFG_DSI0_BASE), 2560u},
 342:.\Generated_Source\PSoC5/cyfitter_cfg.c **** 			{(void CYFAR *)(CYDEV_UCFG_DSI12_BASE), 512u},
 343:.\Generated_Source\PSoC5/cyfitter_cfg.c **** 			{(void CYFAR *)(CYREG_BCTL0_MDCLK_EN), 32u},
 344:.\Generated_Source\PSoC5/cyfitter_cfg.c **** 		};
 345:.\Generated_Source\PSoC5/cyfitter_cfg.c **** 
 346:.\Generated_Source\PSoC5/cyfitter_cfg.c **** 		uint8 CYDATA i;
 347:.\Generated_Source\PSoC5/cyfitter_cfg.c **** 
 348:.\Generated_Source\PSoC5/cyfitter_cfg.c **** 		/* Zero out critical memory blocks before beginning configuration */
 349:.\Generated_Source\PSoC5/cyfitter_cfg.c **** 		for (i = 0u; i < (sizeof(cfg_memset_list)/sizeof(cfg_memset_list[0])); i++)
 350:.\Generated_Source\PSoC5/cyfitter_cfg.c **** 		{
 351:.\Generated_Source\PSoC5/cyfitter_cfg.c **** 			const cfg_memset_t CYCODE * CYDATA ms = &cfg_memset_list[i];
 352:.\Generated_Source\PSoC5/cyfitter_cfg.c **** 			CYMEMZERO(ms->address, (size_t)(uint32)(ms->size));
  89              		.loc 1 352 0 discriminator 3
  90 0016 04EB4403 		add	r3, r4, r4, lsl #1
  91              	.LBB40:
  92              	.LBB41:
  64:.\Generated_Source\PSoC5/cyfitter_cfg.c **** }
  93              		.loc 1 64 0 discriminator 3
  94 001a AA88     		ldrh	r2, [r5, #4]
  95              	.LVL3:
  96 001c 56F81300 		ldr	r0, [r6, r3, lsl #1]	@ unaligned
  97 0020 0134     		adds	r4, r4, #1
  98              	.LVL4:
  99 0022 0021     		movs	r1, #0
 100 0024 FFF7FEFF 		bl	memset
 101              	.LVL5:
 102              	.LBE41:
 103              	.LBE40:
ARM GAS  C:\Users\JOSEAN~1\AppData\Local\Temp\cciWidb8.s 			page 9


 104              	.LBE39:
 349:.\Generated_Source\PSoC5/cyfitter_cfg.c **** 		{
 105              		.loc 1 349 0 discriminator 3
 106 0028 092C     		cmp	r4, #9
 107 002a 05F10605 		add	r5, r5, #6
 108 002e F2D1     		bne	.L5
 109 0030 604E     		ldr	r6, .L27+8
 110              	.LBB42:
 111              	.LBB43:
 166:.\Generated_Source\PSoC5/cyfitter_cfg.c **** 	{
 112              		.loc 1 166 0
 113 0032 614F     		ldr	r7, .L27+12
 114              	.LBE43:
 115              	.LBE42:
 116 0034 0025     		movs	r5, #0
 117              	.LVL6:
 118              	.L8:
 119              	.LBB46:
 120              	.LBB45:
 121              	.LBB44:
 168:.\Generated_Source\PSoC5/cyfitter_cfg.c **** 		uint8 count = (uint8)baseAddr;
 122              		.loc 1 168 0
 123 0036 56F8043F 		ldr	r3, [r6, #4]!
 124              	.LVL7:
 171:.\Generated_Source\PSoC5/cyfitter_cfg.c **** 		{
 125              		.loc 1 171 0
 126 003a 13F0FF0E 		ands	lr, r3, #255
 170:.\Generated_Source\PSoC5/cyfitter_cfg.c **** 		while (count != 0u)
 127              		.loc 1 170 0
 128 003e 23F0FF04 		bic	r4, r3, #255
 129              	.LVL8:
 171:.\Generated_Source\PSoC5/cyfitter_cfg.c **** 		{
 130              		.loc 1 171 0
 131 0042 13D0     		beq	.L6
 132 0044 05F11053 		add	r3, r5, #603979776
 133              	.LVL9:
 134 0048 0EF1FF3E 		add	lr, lr, #-1
 135 004c 03F11D00 		add	r0, r3, #29
 136 0050 5FFA8EFE 		uxtb	lr, lr
 137 0054 7044     		add	r0, r0, lr
 138 0056 1C33     		adds	r3, r3, #28
 139 0058 4000     		lsls	r0, r0, #1
 140 005a 5B00     		lsls	r3, r3, #1
 141              	.LVL10:
 142              	.L7:
 173:.\Generated_Source\PSoC5/cyfitter_cfg.c **** 			j++;
 143              		.loc 1 173 0
 144 005c 1A78     		ldrb	r2, [r3]	@ zero_extendqisi2
 145 005e 5978     		ldrb	r1, [r3, #1]	@ zero_extendqisi2
 146 0060 0233     		adds	r3, r3, #2
 171:.\Generated_Source\PSoC5/cyfitter_cfg.c **** 		{
 147              		.loc 1 171 0
 148 0062 8342     		cmp	r3, r0
 173:.\Generated_Source\PSoC5/cyfitter_cfg.c **** 			j++;
 149              		.loc 1 173 0
 150 0064 1155     		strb	r1, [r2, r4]
 171:.\Generated_Source\PSoC5/cyfitter_cfg.c **** 		{
ARM GAS  C:\Users\JOSEAN~1\AppData\Local\Temp\cciWidb8.s 			page 10


 151              		.loc 1 171 0
 152 0066 F9D1     		bne	.L7
 153 0068 0135     		adds	r5, r5, #1
 154 006a 7544     		add	r5, r5, lr
 155              	.L6:
 156              	.LVL11:
 157              	.LBE44:
 166:.\Generated_Source\PSoC5/cyfitter_cfg.c **** 	{
 158              		.loc 1 166 0
 159 006c BE42     		cmp	r6, r7
 160 006e E2D1     		bne	.L8
 161              	.LBE45:
 162              	.LBE46:
 163              	.LBE38:
 164              	.LBB47:
 165              	.LBB48:
 213:.\Generated_Source\PSoC5/cyfitter_cfg.c **** 	/* Wait up to 250us for the PLL to lock */
 166              		.loc 1 213 0
 167 0070 41F25129 		movw	r9, #4689
 168              	.LBE48:
 169              	.LBE47:
 170              	.LBB56:
 353:.\Generated_Source\PSoC5/cyfitter_cfg.c **** 		}
 354:.\Generated_Source\PSoC5/cyfitter_cfg.c **** 
 355:.\Generated_Source\PSoC5/cyfitter_cfg.c **** 		cfg_write_bytes32(cy_cfg_addr_table, cy_cfg_data_table);
 356:.\Generated_Source\PSoC5/cyfitter_cfg.c **** 
 357:.\Generated_Source\PSoC5/cyfitter_cfg.c **** 		/* Enable digital routing */
 358:.\Generated_Source\PSoC5/cyfitter_cfg.c **** 		CY_SET_XTND_REG8((void CYFAR *)CYREG_BCTL0_BANK_CTL, CY_GET_XTND_REG8((void CYFAR *)CYREG_BCTL0_B
 171              		.loc 1 358 0
 172 0074 5148     		ldr	r0, .L27+16
 359:.\Generated_Source\PSoC5/cyfitter_cfg.c **** 		CY_SET_XTND_REG8((void CYFAR *)CYREG_BCTL1_BANK_CTL, CY_GET_XTND_REG8((void CYFAR *)CYREG_BCTL1_B
 173              		.loc 1 359 0
 174 0076 524A     		ldr	r2, .L27+20
 358:.\Generated_Source\PSoC5/cyfitter_cfg.c **** 		CY_SET_XTND_REG8((void CYFAR *)CYREG_BCTL1_BANK_CTL, CY_GET_XTND_REG8((void CYFAR *)CYREG_BCTL1_B
 175              		.loc 1 358 0
 176 0078 0378     		ldrb	r3, [r0]	@ zero_extendqisi2
 360:.\Generated_Source\PSoC5/cyfitter_cfg.c **** 
 361:.\Generated_Source\PSoC5/cyfitter_cfg.c **** 		/* Enable UDB array */
 362:.\Generated_Source\PSoC5/cyfitter_cfg.c **** 		CY_SET_XTND_REG8((void CYFAR *)CYREG_PM_ACT_CFG0, CY_GET_XTND_REG8((void CYFAR *)CYREG_PM_ACT_CFG
 177              		.loc 1 362 0
 178 007a 5249     		ldr	r1, .L27+24
 358:.\Generated_Source\PSoC5/cyfitter_cfg.c **** 		CY_SET_XTND_REG8((void CYFAR *)CYREG_BCTL1_BANK_CTL, CY_GET_XTND_REG8((void CYFAR *)CYREG_BCTL1_B
 179              		.loc 1 358 0
 180 007c 43F00203 		orr	r3, r3, #2
 181 0080 0370     		strb	r3, [r0]
 359:.\Generated_Source\PSoC5/cyfitter_cfg.c **** 
 182              		.loc 1 359 0
 183 0082 1378     		ldrb	r3, [r2]	@ zero_extendqisi2
 363:.\Generated_Source\PSoC5/cyfitter_cfg.c **** 		CY_SET_XTND_REG8((void CYFAR *)CYREG_PM_AVAIL_CR2, CY_GET_XTND_REG8((void CYFAR *)CYREG_PM_AVAIL_
 184              		.loc 1 363 0
 185 0084 A0F58630 		sub	r0, r0, #68608
 359:.\Generated_Source\PSoC5/cyfitter_cfg.c **** 
 186              		.loc 1 359 0
 187 0088 43F00203 		orr	r3, r3, #2
 188 008c 1370     		strb	r3, [r2]
 362:.\Generated_Source\PSoC5/cyfitter_cfg.c **** 		CY_SET_XTND_REG8((void CYFAR *)CYREG_PM_AVAIL_CR2, CY_GET_XTND_REG8((void CYFAR *)CYREG_PM_AVAIL_
 189              		.loc 1 362 0
ARM GAS  C:\Users\JOSEAN~1\AppData\Local\Temp\cciWidb8.s 			page 11


 190 008e 0B78     		ldrb	r3, [r1]	@ zero_extendqisi2
 191              		.loc 1 363 0
 192 0090 4138     		subs	r0, r0, #65
 362:.\Generated_Source\PSoC5/cyfitter_cfg.c **** 		CY_SET_XTND_REG8((void CYFAR *)CYREG_PM_AVAIL_CR2, CY_GET_XTND_REG8((void CYFAR *)CYREG_PM_AVAIL_
 193              		.loc 1 362 0
 194 0092 43F04003 		orr	r3, r3, #64
 195 0096 0B70     		strb	r3, [r1]
 196              		.loc 1 363 0
 197 0098 0178     		ldrb	r1, [r0]	@ zero_extendqisi2
 198              	.LBE56:
 199              	.LBB57:
 200              	.LBB58:
  71:.\Generated_Source\PSoC5/cyfitter_cfg.c **** }
 201              		.loc 1 71 0
 202 009a 4B4A     		ldr	r2, .L27+28
 203              	.LBE58:
 204              	.LBE57:
 205              	.LBB62:
 206              		.loc 1 363 0
 207 009c 41F01001 		orr	r1, r1, #16
 208              	.LBE62:
 209              	.LBB63:
 210              	.LBB59:
  71:.\Generated_Source\PSoC5/cyfitter_cfg.c **** }
 211              		.loc 1 71 0
 212 00a0 4A4B     		ldr	r3, .L27+32
 213              	.LBE59:
 214              	.LBE63:
 215              	.LBB64:
 216              		.loc 1 363 0
 217 00a2 0170     		strb	r1, [r0]
 218              	.LVL12:
 219              	.LBE64:
 220              	.LBB65:
 221              	.LBB60:
  71:.\Generated_Source\PSoC5/cyfitter_cfg.c **** }
 222              		.loc 1 71 0
 223 00a4 07CA     		ldmia	r2, {r0, r1, r2}
 224 00a6 03C3     		stmia	r3!, {r0, r1}
 225              	.LBE60:
 226              	.LBE65:
 364:.\Generated_Source\PSoC5/cyfitter_cfg.c **** 	}
 365:.\Generated_Source\PSoC5/cyfitter_cfg.c **** 
 366:.\Generated_Source\PSoC5/cyfitter_cfg.c **** 
 367:.\Generated_Source\PSoC5/cyfitter_cfg.c **** 	/* Perform second pass device configuration. These items must be configured in specific order afte
 368:.\Generated_Source\PSoC5/cyfitter_cfg.c **** 	CYCONFIGCPY((void CYFAR *)(CYREG_PRT12_DR), (const void CYFAR *)(BS_IOPINS0_7_VAL), 10u);
 369:.\Generated_Source\PSoC5/cyfitter_cfg.c **** 	CYCONFIGCPY((void CYFAR *)(CYREG_PRT12_DR + 0x0000000Bu), (const void CYFAR *)(BS_IOPINS1_7_VAL), 
 370:.\Generated_Source\PSoC5/cyfitter_cfg.c **** 	CYCONFIGCPY((void CYFAR *)(CYREG_PRT2_DM0), (const void CYFAR *)(BS_IOPINS0_2_VAL), 8u);
 371:.\Generated_Source\PSoC5/cyfitter_cfg.c **** 	/* Switch Boost to the precision bandgap reference from its internal reference */
 372:.\Generated_Source\PSoC5/cyfitter_cfg.c **** 	CY_SET_REG8((void CYXDATA *)CYREG_BOOST_CR2, (CY_GET_REG8((void CYXDATA *)CYREG_BOOST_CR2) | 0x08u
 227              		.loc 1 372 0
 228 00a8 494E     		ldr	r6, .L27+36
 229              	.LBB66:
 230              	.LBB67:
  71:.\Generated_Source\PSoC5/cyfitter_cfg.c **** }
 231              		.loc 1 71 0
 232 00aa 4A49     		ldr	r1, .L27+40
ARM GAS  C:\Users\JOSEAN~1\AppData\Local\Temp\cciWidb8.s 			page 12


 233              	.LBE67:
 234              	.LBE66:
 235              	.LBB70:
 236              	.LBB61:
 237 00ac 1A80     		strh	r2, [r3]	@ movhi
 238              	.LVL13:
 239              	.LBE61:
 240              	.LBE70:
 241              		.loc 1 372 0
 242 00ae 3278     		ldrb	r2, [r6]	@ zero_extendqisi2
 243              	.LBB71:
 244              	.LBB68:
  71:.\Generated_Source\PSoC5/cyfitter_cfg.c **** }
 245              		.loc 1 71 0
 246 00b0 0868     		ldr	r0, [r1]	@ unaligned
 247 00b2 91F804E0 		ldrb	lr, [r1, #4]	@ zero_extendqisi2
 248 00b6 4849     		ldr	r1, .L27+44
 249              	.LBE68:
 250              	.LBE71:
 251              	.LBB72:
 252              	.LBB73:
 253 00b8 484B     		ldr	r3, .L27+48
 254              	.LBE73:
 255              	.LBE72:
 256              	.LBB76:
 257              	.LBB69:
 258 00ba 81F804E0 		strb	lr, [r1, #4]
 259              	.LVL14:
 260 00be 0860     		str	r0, [r1]	@ unaligned
 261              	.LBE69:
 262              	.LBE76:
 263              		.loc 1 372 0
 264 00c0 42F00802 		orr	r2, r2, #8
 265              	.LBB77:
 266              	.LBB74:
  71:.\Generated_Source\PSoC5/cyfitter_cfg.c **** }
 267              		.loc 1 71 0
 268 00c4 03CB     		ldmia	r3!, {r0, r1}
 269              	.LBE74:
 270              	.LBE77:
 271              	.LBB78:
 272              	.LBB49:
 208:.\Generated_Source\PSoC5/cyfitter_cfg.c **** 	CY_SET_XTND_REG8((void CYFAR *)(CYREG_IMO_TR1), (CY_GET_XTND_REG8((void CYFAR *)CYREG_FLSHID_CUST_
 273              		.loc 1 208 0
 274 00c6 464F     		ldr	r7, .L27+52
 275              	.LBE49:
 276              	.LBE78:
 277              		.loc 1 372 0
 278 00c8 3270     		strb	r2, [r6]
 373:.\Generated_Source\PSoC5/cyfitter_cfg.c **** 
 374:.\Generated_Source\PSoC5/cyfitter_cfg.c **** 	/* Set Flash Cycles based on max possible frequency in case a glitch occurs during ClockSetup(). *
 375:.\Generated_Source\PSoC5/cyfitter_cfg.c **** 	CY_SET_XTND_REG8((void CYFAR *)(CYREG_CACHE_CC_CTL), (((CYDEV_INSTRUCT_CACHE_ENABLED) != 0) ? 0x01
 279              		.loc 1 375 0
 280 00ca DFF82CB1 		ldr	fp, .L27+76
 281              	.LBB79:
 282              	.LBB50:
 204:.\Generated_Source\PSoC5/cyfitter_cfg.c **** 	CY_SET_XTND_REG8((void CYFAR *)(CYREG_CLKDIST_CR), 0x08u);
ARM GAS  C:\Users\JOSEAN~1\AppData\Local\Temp\cciWidb8.s 			page 13


 283              		.loc 1 204 0
 284 00ce 454A     		ldr	r2, .L27+56
 285              	.LBE50:
 286              	.LBE79:
 287              		.loc 1 375 0
 288 00d0 0025     		movs	r5, #0
 289              	.LVL15:
 290              	.LBB80:
 291              	.LBB51:
 205:.\Generated_Source\PSoC5/cyfitter_cfg.c **** 
 292              		.loc 1 205 0
 293 00d2 4FF0402C 		mov	ip, #1073758208
 208:.\Generated_Source\PSoC5/cyfitter_cfg.c **** 	CY_SET_XTND_REG8((void CYFAR *)(CYREG_IMO_TR1), (CY_GET_XTND_REG8((void CYFAR *)CYREG_FLSHID_CUST_
 294              		.loc 1 208 0
 295 00d6 4FF0030E 		mov	lr, #3
 204:.\Generated_Source\PSoC5/cyfitter_cfg.c **** 	CY_SET_XTND_REG8((void CYFAR *)(CYREG_CLKDIST_CR), 0x08u);
 296              		.loc 1 204 0
 297 00da 4FF0020A 		mov	r10, #2
 205:.\Generated_Source\PSoC5/cyfitter_cfg.c **** 
 298              		.loc 1 205 0
 299 00de 4FF00808 		mov	r8, #8
 209:.\Generated_Source\PSoC5/cyfitter_cfg.c **** 
 300              		.loc 1 209 0
 301 00e2 414B     		ldr	r3, .L27+60
 302              	.LBE51:
 303              	.LBE80:
 304              		.loc 1 375 0
 305 00e4 8BF80050 		strb	r5, [fp]
 306              	.LBB81:
 307              	.LBB52:
 204:.\Generated_Source\PSoC5/cyfitter_cfg.c **** 	CY_SET_XTND_REG8((void CYFAR *)(CYREG_CLKDIST_CR), 0x08u);
 308              		.loc 1 204 0
 309 00e8 82F800A0 		strb	r10, [r2]
 205:.\Generated_Source\PSoC5/cyfitter_cfg.c **** 
 310              		.loc 1 205 0
 311 00ec 8CF80080 		strb	r8, [ip]
 208:.\Generated_Source\PSoC5/cyfitter_cfg.c **** 	CY_SET_XTND_REG8((void CYFAR *)(CYREG_IMO_TR1), (CY_GET_XTND_REG8((void CYFAR *)CYREG_FLSHID_CUST_
 312              		.loc 1 208 0
 313 00f0 87F800E0 		strb	lr, [r7]
 209:.\Generated_Source\PSoC5/cyfitter_cfg.c **** 
 314              		.loc 1 209 0
 315 00f4 1B78     		ldrb	r3, [r3]	@ zero_extendqisi2
 215:.\Generated_Source\PSoC5/cyfitter_cfg.c **** 	for (timeout = 250u / 10u; (timeout > 0u) && (pllLock != 0x03u); timeout--)
 316              		.loc 1 215 0
 317 00f6 2C46     		mov	r4, r5
 318              	.LVL16:
 212:.\Generated_Source\PSoC5/cyfitter_cfg.c **** 	CY_SET_XTND_REG16((void CYFAR *)(CYREG_FASTCLK_PLL_CFG0), 0x1251u);
 319              		.loc 1 212 0
 320 00f8 DFF814E1 		ldr	lr, .L27+100
 209:.\Generated_Source\PSoC5/cyfitter_cfg.c **** 
 321              		.loc 1 209 0
 322 00fc 3B4D     		ldr	r5, .L27+64
 213:.\Generated_Source\PSoC5/cyfitter_cfg.c **** 	/* Wait up to 250us for the PLL to lock */
 323              		.loc 1 213 0
 324 00fe A6F58176 		sub	r6, r6, #258
 209:.\Generated_Source\PSoC5/cyfitter_cfg.c **** 
 325              		.loc 1 209 0
ARM GAS  C:\Users\JOSEAN~1\AppData\Local\Temp\cciWidb8.s 			page 14


 326 0102 DBB2     		uxtb	r3, r3
 212:.\Generated_Source\PSoC5/cyfitter_cfg.c **** 	CY_SET_XTND_REG16((void CYFAR *)(CYREG_FASTCLK_PLL_CFG0), 0x1251u);
 327              		.loc 1 212 0
 328 0104 4FF0100C 		mov	ip, #16
 329              	.LBE52:
 330              	.LBE81:
 331              	.LBB82:
 332              	.LBB75:
  71:.\Generated_Source\PSoC5/cyfitter_cfg.c **** }
 333              		.loc 1 71 0
 334 0108 C2F8220E 		str	r0, [r2, #3618]	@ unaligned
 335 010c C2F8261E 		str	r1, [r2, #3622]	@ unaligned
 336              	.LBE75:
 337              	.LBE82:
 338              	.LBB83:
 339              	.LBB53:
 218:.\Generated_Source\PSoC5/cyfitter_cfg.c **** 		CyDelayCycles(10u * 48u); /* Delay 10us based on 48MHz clock */
 340              		.loc 1 218 0
 341 0110 2537     		adds	r7, r7, #37
 209:.\Generated_Source\PSoC5/cyfitter_cfg.c **** 
 342              		.loc 1 209 0
 343 0112 2B70     		strb	r3, [r5]
 212:.\Generated_Source\PSoC5/cyfitter_cfg.c **** 	CY_SET_XTND_REG16((void CYFAR *)(CYREG_FASTCLK_PLL_CFG0), 0x1251u);
 344              		.loc 1 212 0
 345 0114 AEF800C0 		strh	ip, [lr]	@ movhi
 213:.\Generated_Source\PSoC5/cyfitter_cfg.c **** 	/* Wait up to 250us for the PLL to lock */
 346              		.loc 1 213 0
 347 0118 1925     		movs	r5, #25
 348 011a A6F80090 		strh	r9, [r6]	@ movhi
 349              	.LVL17:
 350 011e 01E0     		b	.L10
 351              	.LVL18:
 352              	.L26:
 216:.\Generated_Source\PSoC5/cyfitter_cfg.c **** 	{ 
 353              		.loc 1 216 0
 354 0120 032C     		cmp	r4, #3
 355 0122 0DD0     		beq	.L25
 356              	.LVL19:
 357              	.L10:
 218:.\Generated_Source\PSoC5/cyfitter_cfg.c **** 		CyDelayCycles(10u * 48u); /* Delay 10us based on 48MHz clock */
 358              		.loc 1 218 0
 359 0124 3B78     		ldrb	r3, [r7]	@ zero_extendqisi2
 219:.\Generated_Source\PSoC5/cyfitter_cfg.c **** 	}
 360              		.loc 1 219 0
 361 0126 4FF4F070 		mov	r0, #480
 218:.\Generated_Source\PSoC5/cyfitter_cfg.c **** 		CyDelayCycles(10u * 48u); /* Delay 10us based on 48MHz clock */
 362              		.loc 1 218 0
 363 012a 03F00103 		and	r3, r3, #1
 364 012e 43EA4404 		orr	r4, r3, r4, lsl #1
 365              	.LVL20:
 219:.\Generated_Source\PSoC5/cyfitter_cfg.c **** 	}
 366              		.loc 1 219 0
 367 0132 FFF7FEFF 		bl	CyDelayCycles
 368              	.LVL21:
 216:.\Generated_Source\PSoC5/cyfitter_cfg.c **** 	{ 
 369              		.loc 1 216 0
 370 0136 013D     		subs	r5, r5, #1
ARM GAS  C:\Users\JOSEAN~1\AppData\Local\Temp\cciWidb8.s 			page 15


 218:.\Generated_Source\PSoC5/cyfitter_cfg.c **** 		CyDelayCycles(10u * 48u); /* Delay 10us based on 48MHz clock */
 371              		.loc 1 218 0
 372 0138 04F00304 		and	r4, r4, #3
 373              	.LVL22:
 216:.\Generated_Source\PSoC5/cyfitter_cfg.c **** 	{ 
 374              		.loc 1 216 0
 375 013c F0D1     		bne	.L26
 376              	.L9:
 377 013e FEE7     		b	.L9
 378              	.L25:
 228:.\Generated_Source\PSoC5/cyfitter_cfg.c **** 	CY_SET_XTND_REG8((void CYFAR *)(CYREG_CLKDIST_MSTR0), 0x07u);
 379              		.loc 1 228 0
 380 0140 2B4B     		ldr	r3, .L27+68
 233:.\Generated_Source\PSoC5/cyfitter_cfg.c **** }
 381              		.loc 1 233 0
 382 0142 2C4F     		ldr	r7, .L27+72
 383              	.LBE53:
 384              	.LBE83:
 376:.\Generated_Source\PSoC5/cyfitter_cfg.c **** 	/* Setup clocks based on selections from Clock DWR */
 377:.\Generated_Source\PSoC5/cyfitter_cfg.c **** 	ClockSetup();
 378:.\Generated_Source\PSoC5/cyfitter_cfg.c **** 	/* Set Flash Cycles based on newly configured 48.00MHz Bus Clock. */
 379:.\Generated_Source\PSoC5/cyfitter_cfg.c **** 	CY_SET_XTND_REG8((void CYFAR *)(CYREG_CACHE_CC_CTL), (((CYDEV_INSTRUCT_CACHE_ENABLED) != 0) ? 0xC1
 385              		.loc 1 379 0
 386 0144 2C4D     		ldr	r5, .L27+76
 380:.\Generated_Source\PSoC5/cyfitter_cfg.c **** 	CY_SET_XTND_REG8((void CYFAR *)(CYREG_PANTHER_WAITPIPE), 0x01u);
 387              		.loc 1 380 0
 388 0146 2D48     		ldr	r0, .L27+80
 389              	.LBB84:
 390              	.LBB54:
 230:.\Generated_Source\PSoC5/cyfitter_cfg.c **** 	CY_SET_XTND_REG8((void CYFAR *)(CYREG_CLKDIST_BCFG2), 0x48u);
 391              		.loc 1 230 0
 392 0148 DFF8C890 		ldr	r9, .L27+104
 231:.\Generated_Source\PSoC5/cyfitter_cfg.c **** 	CY_SET_XTND_REG8((void CYFAR *)(CYREG_CLKDIST_MSTR0), 0x00u);
 393              		.loc 1 231 0
 394 014c DFF8C8C0 		ldr	ip, .L27+108
 230:.\Generated_Source\PSoC5/cyfitter_cfg.c **** 	CY_SET_XTND_REG8((void CYFAR *)(CYREG_CLKDIST_BCFG2), 0x48u);
 395              		.loc 1 230 0
 396 0150 0022     		movs	r2, #0
 229:.\Generated_Source\PSoC5/cyfitter_cfg.c **** 	CY_SET_XTND_REG8((void CYFAR *)(CYREG_CLKDIST_BCFG0), 0x00u);
 397              		.loc 1 229 0
 398 0152 4FF0070A 		mov	r10, #7
 233:.\Generated_Source\PSoC5/cyfitter_cfg.c **** }
 399              		.loc 1 233 0
 400 0156 4FF0020E 		mov	lr, #2
 401              	.LBE54:
 402              	.LBE84:
 379:.\Generated_Source\PSoC5/cyfitter_cfg.c **** 	CY_SET_XTND_REG8((void CYFAR *)(CYREG_PANTHER_WAITPIPE), 0x01u);
 403              		.loc 1 379 0
 404 015a C026     		movs	r6, #192
 405              		.loc 1 380 0
 406 015c 0124     		movs	r4, #1
 407              	.LVL23:
 408              	.LBB85:
 409              	.LBB86:
 258:.\Generated_Source\PSoC5/cyfitter_cfg.c **** 	CY_SET_XTND_REG8((void CYFAR *)(CYREG_BG_DFT0), (bg_xover_inl_trim & 0x07u));
 410              		.loc 1 258 0
 411 015e 2849     		ldr	r1, .L27+84
ARM GAS  C:\Users\JOSEAN~1\AppData\Local\Temp\cciWidb8.s 			page 16


 412              	.LBE86:
 413              	.LBE85:
 414              	.LBB90:
 415              	.LBB55:
 228:.\Generated_Source\PSoC5/cyfitter_cfg.c **** 	CY_SET_XTND_REG8((void CYFAR *)(CYREG_CLKDIST_MSTR0), 0x07u);
 416              		.loc 1 228 0
 417 0160 4FF4807B 		mov	fp, #256
 231:.\Generated_Source\PSoC5/cyfitter_cfg.c **** 	CY_SET_XTND_REG8((void CYFAR *)(CYREG_CLKDIST_MSTR0), 0x00u);
 418              		.loc 1 231 0
 419 0164 4FF04808 		mov	r8, #72
 228:.\Generated_Source\PSoC5/cyfitter_cfg.c **** 	CY_SET_XTND_REG8((void CYFAR *)(CYREG_CLKDIST_MSTR0), 0x07u);
 420              		.loc 1 228 0
 421 0168 A3F800B0 		strh	fp, [r3]	@ movhi
 229:.\Generated_Source\PSoC5/cyfitter_cfg.c **** 	CY_SET_XTND_REG8((void CYFAR *)(CYREG_CLKDIST_BCFG0), 0x00u);
 422              		.loc 1 229 0
 423 016c 83F800A0 		strb	r10, [r3]
 230:.\Generated_Source\PSoC5/cyfitter_cfg.c **** 	CY_SET_XTND_REG8((void CYFAR *)(CYREG_CLKDIST_BCFG2), 0x48u);
 424              		.loc 1 230 0
 425 0170 89F80020 		strb	r2, [r9]
 231:.\Generated_Source\PSoC5/cyfitter_cfg.c **** 	CY_SET_XTND_REG8((void CYFAR *)(CYREG_CLKDIST_MSTR0), 0x00u);
 426              		.loc 1 231 0
 427 0174 8CF80080 		strb	r8, [ip]
 232:.\Generated_Source\PSoC5/cyfitter_cfg.c **** 	CY_SET_XTND_REG8((void CYFAR *)(CYREG_CLKDIST_LD), 0x02u);
 428              		.loc 1 232 0
 429 0178 1A70     		strb	r2, [r3]
 233:.\Generated_Source\PSoC5/cyfitter_cfg.c **** }
 430              		.loc 1 233 0
 431 017a 87F800E0 		strb	lr, [r7]
 432              	.LBE55:
 433              	.LBE90:
 379:.\Generated_Source\PSoC5/cyfitter_cfg.c **** 	CY_SET_XTND_REG8((void CYFAR *)(CYREG_PANTHER_WAITPIPE), 0x01u);
 434              		.loc 1 379 0
 435 017e 2E70     		strb	r6, [r5]
 436              		.loc 1 380 0
 437 0180 0470     		strb	r4, [r0]
 438              	.LBB91:
 439              	.LBB87:
 258:.\Generated_Source\PSoC5/cyfitter_cfg.c **** 	CY_SET_XTND_REG8((void CYFAR *)(CYREG_BG_DFT0), (bg_xover_inl_trim & 0x07u));
 440              		.loc 1 258 0
 441 0182 0B78     		ldrb	r3, [r1]	@ zero_extendqisi2
 259:.\Generated_Source\PSoC5/cyfitter_cfg.c **** 	CY_SET_XTND_REG8((void CYFAR *)(CYREG_BG_DFT1), ((bg_xover_inl_trim >> 4) & 0x0Fu));
 442              		.loc 1 259 0
 443 0184 1F49     		ldr	r1, .L27+88
 258:.\Generated_Source\PSoC5/cyfitter_cfg.c **** 	CY_SET_XTND_REG8((void CYFAR *)(CYREG_BG_DFT0), (bg_xover_inl_trim & 0x07u));
 444              		.loc 1 258 0
 445 0186 DBB2     		uxtb	r3, r3
 446              	.LVL24:
 259:.\Generated_Source\PSoC5/cyfitter_cfg.c **** 	CY_SET_XTND_REG8((void CYFAR *)(CYREG_BG_DFT1), ((bg_xover_inl_trim >> 4) & 0x0Fu));
 447              		.loc 1 259 0
 448 0188 03EA0A00 		and	r0, r3, r10
 260:.\Generated_Source\PSoC5/cyfitter_cfg.c **** 	CY_SET_XTND_REG8((void CYFAR *)CYREG_PUMP_CR0, 0x44u);
 449              		.loc 1 260 0
 450 018c DFF88CE0 		ldr	lr, .L27+112
 261:.\Generated_Source\PSoC5/cyfitter_cfg.c **** }
 451              		.loc 1 261 0
 452 0190 1D4E     		ldr	r6, .L27+92
 453              	.LBE87:
ARM GAS  C:\Users\JOSEAN~1\AppData\Local\Temp\cciWidb8.s 			page 17


 454              	.LBE91:
 455              	.LBB92:
 456              	.LBB93:
  71:.\Generated_Source\PSoC5/cyfitter_cfg.c **** }
 457              		.loc 1 71 0
 458 0192 0C4A     		ldr	r2, .L27+24
 459 0194 1D4C     		ldr	r4, .L27+96
 460              	.LBE93:
 461              	.LBE92:
 462              	.LBB96:
 463              	.LBB88:
 259:.\Generated_Source\PSoC5/cyfitter_cfg.c **** 	CY_SET_XTND_REG8((void CYFAR *)(CYREG_BG_DFT1), ((bg_xover_inl_trim >> 4) & 0x0Fu));
 464              		.loc 1 259 0
 465 0196 0870     		strb	r0, [r1]
 260:.\Generated_Source\PSoC5/cyfitter_cfg.c **** 	CY_SET_XTND_REG8((void CYFAR *)CYREG_PUMP_CR0, 0x44u);
 466              		.loc 1 260 0
 467 0198 1D09     		lsrs	r5, r3, #4
 261:.\Generated_Source\PSoC5/cyfitter_cfg.c **** }
 468              		.loc 1 261 0
 469 019a 4427     		movs	r7, #68
 470              	.LBE88:
 471              	.LBE96:
 472              	.LBB97:
 473              	.LBB94:
  71:.\Generated_Source\PSoC5/cyfitter_cfg.c **** }
 474              		.loc 1 71 0
 475 019c 0FCA     		ldmia	r2, {r0, r1, r2, r3}
 476              	.LVL25:
 477              	.LBE94:
 478              	.LBE97:
 479              	.LBB98:
 480              	.LBB89:
 260:.\Generated_Source\PSoC5/cyfitter_cfg.c **** 	CY_SET_XTND_REG8((void CYFAR *)CYREG_PUMP_CR0, 0x44u);
 481              		.loc 1 260 0
 482 019e 8EF80050 		strb	r5, [lr]
 261:.\Generated_Source\PSoC5/cyfitter_cfg.c **** }
 483              		.loc 1 261 0
 484 01a2 3770     		strb	r7, [r6]
 485              	.LVL26:
 486              	.LBE89:
 487              	.LBE98:
 488              	.LBB99:
 489              	.LBB95:
  71:.\Generated_Source\PSoC5/cyfitter_cfg.c **** }
 490              		.loc 1 71 0
 491 01a4 07C4     		stmia	r4!, {r0, r1, r2}
 492 01a6 2380     		strh	r3, [r4]	@ movhi
 493 01a8 BDE8F88F 		pop	{r3, r4, r5, r6, r7, r8, r9, r10, fp, pc}
 494              	.L28:
 495              		.align	2
 496              	.L27:
 497 01ac 00000000 		.word	.LANCHOR0
 498 01b0 E8460040 		.word	1073759976
 499 01b4 FCFFFF47 		.word	1207959548
 500 01b8 34000048 		.word	1207959604
 501 01bc 03500140 		.word	1073827843
 502 01c0 13500140 		.word	1073827859
ARM GAS  C:\Users\JOSEAN~1\AppData\Local\Temp\cciWidb8.s 			page 18


 503 01c4 A0430040 		.word	1073759136
 504 01c8 B4000048 		.word	1207959732
 505 01cc C0510040 		.word	1073762752
 506 01d0 22430040 		.word	1073759010
 507 01d4 C0000048 		.word	1207959744
 508 01d8 CB510040 		.word	1073762763
 509 01dc C8000048 		.word	1207959752
 510 01e0 00420040 		.word	1073758720
 511 01e4 00430040 		.word	1073758976
 512 01e8 08010049 		.word	1224737032
 513 01ec A1460040 		.word	1073759905
 514 01f0 04400040 		.word	1073758212
 515 01f4 01400040 		.word	1073758209
 516 01f8 00480040 		.word	1073760256
 517 01fc 04000840 		.word	1074266116
 518 0200 CF010049 		.word	1224737231
 519 0204 6E580040 		.word	1073764462
 520 0208 76580040 		.word	1073764470
 521 020c B0430040 		.word	1073759152
 522 0210 22420040 		.word	1073758754
 523 0214 06400040 		.word	1073758214
 524 0218 08400040 		.word	1073758216
 525 021c 6F580040 		.word	1073764463
 526              	.LBE95:
 527              	.LBE99:
 528              		.cfi_endproc
 529              	.LFE8:
 530              		.size	cyfitter_cfg, .-cyfitter_cfg
 531              		.section	.rodata
 532              		.align	2
 533              		.set	.LANCHOR0,. + 0
 534              		.type	cfg_memset_list.4880, %object
 535              		.size	cfg_memset_list.4880, 54
 536              	cfg_memset_list.4880:
 537 0000 C8490040 		.word	1073760712
 538 0004 1900     		.short	25
 539 0006 00510040 		.4byte	1073762560
 540 000a 2000     		.short	32
 541 000c 30510040 		.word	1073762608
 542 0010 4000     		.short	64
 543 0012 F0510040 		.4byte	1073762800
 544 0016 1000     		.short	16
 545 0018 00000140 		.word	1073807360
 546 001c 0010     		.short	4096
 547 001e 00140140 		.4byte	1073812480
 548 0022 0008     		.short	2048
 549 0024 00400140 		.word	1073823744
 550 0028 000A     		.short	2560
 551 002a 004C0140 		.4byte	1073826816
 552 002e 0002     		.short	512
 553 0030 00500140 		.word	1073827840
 554 0034 2000     		.short	32
 555 0036 0000     		.text
 556              	.Letext0:
 557              		.file 2 "c:\\program files (x86)\\cypress\\psoc creator\\3.3\\psoc creator\\import\\gnu\\arm\\4.9.
 558              		.file 3 ".\\Generated_Source\\PSoC5\\cytypes.h"
 559              		.file 4 ".\\Generated_Source\\PSoC5\\CyLib.h"
ARM GAS  C:\Users\JOSEAN~1\AppData\Local\Temp\cciWidb8.s 			page 19

