ARM GAS  C:\Users\JOSEAN~1\AppData\Local\Temp\cc5AOud0.s 			page 1


   1              		.syntax unified
   2              		.cpu cortex-m3
   3              		.fpu softvfp
   4              		.eabi_attribute 20, 1
   5              		.eabi_attribute 21, 1
   6              		.eabi_attribute 23, 3
   7              		.eabi_attribute 24, 1
   8              		.eabi_attribute 25, 1
   9              		.eabi_attribute 26, 1
  10              		.eabi_attribute 30, 2
  11              		.eabi_attribute 34, 1
  12              		.eabi_attribute 18, 4
  13              		.thumb
  14              		.file	"EZI2C.c"
  15              		.text
  16              	.Ltext0:
  17              		.cfi_sections	.debug_frame
  18              		.section	.text.EZI2C_Init,"ax",%progbits
  19              		.align	2
  20              		.global	EZI2C_Init
  21              		.thumb
  22              		.thumb_func
  23              		.type	EZI2C_Init, %function
  24              	EZI2C_Init:
  25              	.LFB0:
  26              		.file 1 ".\\Generated_Source\\PSoC5\\EZI2C.c"
   1:.\Generated_Source\PSoC5/EZI2C.c **** /*******************************************************************************
   2:.\Generated_Source\PSoC5/EZI2C.c **** * File Name: EZI2C.c
   3:.\Generated_Source\PSoC5/EZI2C.c **** * Version 2.0
   4:.\Generated_Source\PSoC5/EZI2C.c **** *
   5:.\Generated_Source\PSoC5/EZI2C.c **** * Description:
   6:.\Generated_Source\PSoC5/EZI2C.c **** *  This file contains the setup, control and status commands for the EZI2C
   7:.\Generated_Source\PSoC5/EZI2C.c **** *  component. The actual protocol and operation code resides in the interrupt
   8:.\Generated_Source\PSoC5/EZI2C.c **** *  service routine file.
   9:.\Generated_Source\PSoC5/EZI2C.c **** *
  10:.\Generated_Source\PSoC5/EZI2C.c **** ********************************************************************************
  11:.\Generated_Source\PSoC5/EZI2C.c **** * Copyright 2008-2015, Cypress Semiconductor Corporation.  All rights reserved.
  12:.\Generated_Source\PSoC5/EZI2C.c **** * You may use this file only in accordance with the license, terms, conditions,
  13:.\Generated_Source\PSoC5/EZI2C.c **** * disclaimers, and limitations in the end user license agreement accompanying
  14:.\Generated_Source\PSoC5/EZI2C.c **** * the software package with which this file was provided.
  15:.\Generated_Source\PSoC5/EZI2C.c **** *******************************************************************************/
  16:.\Generated_Source\PSoC5/EZI2C.c **** 
  17:.\Generated_Source\PSoC5/EZI2C.c **** #include "EZI2C_PVT.h"
  18:.\Generated_Source\PSoC5/EZI2C.c **** 
  19:.\Generated_Source\PSoC5/EZI2C.c **** /**********************************
  20:.\Generated_Source\PSoC5/EZI2C.c **** *      System variables
  21:.\Generated_Source\PSoC5/EZI2C.c **** **********************************/
  22:.\Generated_Source\PSoC5/EZI2C.c **** 
  23:.\Generated_Source\PSoC5/EZI2C.c **** uint8 EZI2C_initVar = 0u; /* Defines if component was initialized */
  24:.\Generated_Source\PSoC5/EZI2C.c **** 
  25:.\Generated_Source\PSoC5/EZI2C.c **** /* Status and state variables */
  26:.\Generated_Source\PSoC5/EZI2C.c **** volatile uint8 EZI2C_curStatus; /* Current status of the component */
  27:.\Generated_Source\PSoC5/EZI2C.c **** volatile uint8 EZI2C_curState;  /* Current state of state machine */
  28:.\Generated_Source\PSoC5/EZI2C.c **** 
  29:.\Generated_Source\PSoC5/EZI2C.c **** /* Primary slave address variables */
  30:.\Generated_Source\PSoC5/EZI2C.c **** volatile uint8* EZI2C_dataPtrS1; /* Pointer to data buffer 1 */
  31:.\Generated_Source\PSoC5/EZI2C.c **** volatile uint16 EZI2C_bufSizeS1; /* Size of buffer 1 in bytes */
ARM GAS  C:\Users\JOSEAN~1\AppData\Local\Temp\cc5AOud0.s 			page 2


  32:.\Generated_Source\PSoC5/EZI2C.c **** volatile uint16 EZI2C_wrProtectS1; /* Start index of write protected area in buffer 1 */
  33:.\Generated_Source\PSoC5/EZI2C.c **** volatile uint8  EZI2C_rwOffsetS1; /* Current offset within buffer 1 */
  34:.\Generated_Source\PSoC5/EZI2C.c **** volatile uint8  EZI2C_rwIndexS1;  /* Current index within buffer 1 */
  35:.\Generated_Source\PSoC5/EZI2C.c **** 
  36:.\Generated_Source\PSoC5/EZI2C.c **** /* Secondary slave address variables */
  37:.\Generated_Source\PSoC5/EZI2C.c **** #if(EZI2C_ADDRESSES == EZI2C_TWO_ADDRESSES)
  38:.\Generated_Source\PSoC5/EZI2C.c ****     volatile uint8  EZI2C_addrS1; /* Primary slave address: software comparison */
  39:.\Generated_Source\PSoC5/EZI2C.c ****     volatile uint8  EZI2C_addrS2; /* Secondary slave address: software comparison */
  40:.\Generated_Source\PSoC5/EZI2C.c ****     volatile uint8* EZI2C_dataPtrS2; /* Pointer to data buffer 1 */
  41:.\Generated_Source\PSoC5/EZI2C.c ****     volatile uint16 EZI2C_bufSizeS2; /* Size of buffer 2 in bytes */
  42:.\Generated_Source\PSoC5/EZI2C.c ****     volatile uint16 EZI2C_wrProtectS2; /* Start index of write protected area in buffer 2 */
  43:.\Generated_Source\PSoC5/EZI2C.c ****     volatile uint8 EZI2C_rwOffsetS2; /* Current offset within buffer 2 */
  44:.\Generated_Source\PSoC5/EZI2C.c ****     volatile uint8 EZI2C_rwIndexS2;  /* Current index within buffer 2 */
  45:.\Generated_Source\PSoC5/EZI2C.c **** #endif  /* (EZI2C_ADDRESSES == EZI2C_TWO_ADDRESSES) */
  46:.\Generated_Source\PSoC5/EZI2C.c **** 
  47:.\Generated_Source\PSoC5/EZI2C.c **** 
  48:.\Generated_Source\PSoC5/EZI2C.c **** /*******************************************************************************
  49:.\Generated_Source\PSoC5/EZI2C.c **** * Function Name: EZI2C_Init
  50:.\Generated_Source\PSoC5/EZI2C.c **** ********************************************************************************
  51:.\Generated_Source\PSoC5/EZI2C.c **** *
  52:.\Generated_Source\PSoC5/EZI2C.c **** * Summary:
  53:.\Generated_Source\PSoC5/EZI2C.c **** *  Initializes or restores the component according to the Configure dialog
  54:.\Generated_Source\PSoC5/EZI2C.c **** *  settings. It is not necessary to call EZI2C_Init() because the EZI2C_Start()
  55:.\Generated_Source\PSoC5/EZI2C.c **** *  API calls this function, which is the preferred method to begin component
  56:.\Generated_Source\PSoC5/EZI2C.c **** *  operation.
  57:.\Generated_Source\PSoC5/EZI2C.c **** *
  58:.\Generated_Source\PSoC5/EZI2C.c **** * Parameters:
  59:.\Generated_Source\PSoC5/EZI2C.c **** *  None.
  60:.\Generated_Source\PSoC5/EZI2C.c **** *
  61:.\Generated_Source\PSoC5/EZI2C.c **** * Return:
  62:.\Generated_Source\PSoC5/EZI2C.c **** *  None.
  63:.\Generated_Source\PSoC5/EZI2C.c **** *
  64:.\Generated_Source\PSoC5/EZI2C.c **** * Global variables:
  65:.\Generated_Source\PSoC5/EZI2C.c **** *  EZI2C_initVar - It is used to indicate the initial configuration
  66:.\Generated_Source\PSoC5/EZI2C.c **** *  of this component.  The variable is initialized to zero and set to 1
  67:.\Generated_Source\PSoC5/EZI2C.c **** *  the first time EZI2C_Start() is called. This allows component  !
  68:.\Generated_Source\PSoC5/EZI2C.c **** *  initialization without re-initialization in all subsequent calls
  69:.\Generated_Source\PSoC5/EZI2C.c **** *  to the EZI2C_Start() routine.
  70:.\Generated_Source\PSoC5/EZI2C.c **** *
  71:.\Generated_Source\PSoC5/EZI2C.c **** *  EZI2C_curStatus - Stores the current status of the component.
  72:.\Generated_Source\PSoC5/EZI2C.c **** *
  73:.\Generated_Source\PSoC5/EZI2C.c **** *  EZI2C_curState- Stores the current state of an I2C state machine.
  74:.\Generated_Source\PSoC5/EZI2C.c **** *
  75:.\Generated_Source\PSoC5/EZI2C.c **** *  EZI2C_rwOffsetS1 - The global variable which stores an offset for read
  76:.\Generated_Source\PSoC5/EZI2C.c **** *  and write operations, is set at each write sequence of the first slave
  77:.\Generated_Source\PSoC5/EZI2C.c **** *  address is reset if EZI2C_initVar is 0, by
  78:.\Generated_Source\PSoC5/EZI2C.c **** *  EZI2C_initVar function call.
  79:.\Generated_Source\PSoC5/EZI2C.c **** *
  80:.\Generated_Source\PSoC5/EZI2C.c **** *  EZI2C_rwIndexS1 - The global variable which stores a pointer to the
  81:.\Generated_Source\PSoC5/EZI2C.c **** *  next value to be read or written for the first slave address is reset if
  82:.\Generated_Source\PSoC5/EZI2C.c **** *  EZI2C_initVar is 0, by EZI2C_initVar function call.
  83:.\Generated_Source\PSoC5/EZI2C.c **** *
  84:.\Generated_Source\PSoC5/EZI2C.c **** * EZI2C_wrProtectS1 - The global variable which stores an offset where data
  85:.\Generated_Source\PSoC5/EZI2C.c **** *  is read only for the first slave address is reset if
  86:.\Generated_Source\PSoC5/EZI2C.c **** *  EZI2C_initVar is 0, by EZI2C_initVar function call.
  87:.\Generated_Source\PSoC5/EZI2C.c **** *
  88:.\Generated_Source\PSoC5/EZI2C.c **** *  EZI2C_rwOffsetS2 - The global variable, which stores an offset for read
ARM GAS  C:\Users\JOSEAN~1\AppData\Local\Temp\cc5AOud0.s 			page 3


  89:.\Generated_Source\PSoC5/EZI2C.c **** *  and write operations, is set at each write sequence of the second slave
  90:.\Generated_Source\PSoC5/EZI2C.c **** *  device is reset if EZI2C_initVar is 0, by EZI2C_initVar
  91:.\Generated_Source\PSoC5/EZI2C.c **** *  function call.
  92:.\Generated_Source\PSoC5/EZI2C.c **** *
  93:.\Generated_Source\PSoC5/EZI2C.c **** *  EZI2C_rwIndexS2 - The global variable which stores a pointer to the
  94:.\Generated_Source\PSoC5/EZI2C.c **** *  next value to be read or written for the second slave address is reset if
  95:.\Generated_Source\PSoC5/EZI2C.c **** *  EZI2C_initVar is 0, by EZI2C_initVar function call.
  96:.\Generated_Source\PSoC5/EZI2C.c **** *
  97:.\Generated_Source\PSoC5/EZI2C.c **** * EZI2C_wrProtectS2 - The global variable which stores an offset where data
  98:.\Generated_Source\PSoC5/EZI2C.c **** *  is read only for the second slave address is reset if
  99:.\Generated_Source\PSoC5/EZI2C.c **** *  EZI2C_initVar is 0, by EZI2C_initVar function call.
 100:.\Generated_Source\PSoC5/EZI2C.c **** *
 101:.\Generated_Source\PSoC5/EZI2C.c **** * Reentrant:
 102:.\Generated_Source\PSoC5/EZI2C.c **** *  No.
 103:.\Generated_Source\PSoC5/EZI2C.c **** *
 104:.\Generated_Source\PSoC5/EZI2C.c **** *******************************************************************************/
 105:.\Generated_Source\PSoC5/EZI2C.c **** void EZI2C_Init(void) 
 106:.\Generated_Source\PSoC5/EZI2C.c **** {
  27              		.loc 1 106 0
  28              		.cfi_startproc
  29              		@ args = 0, pretend = 0, frame = 0
  30              		@ frame_needed = 0, uses_anonymous_args = 0
  31 0000 2DE9F843 		push	{r3, r4, r5, r6, r7, r8, r9, lr}
  32              		.cfi_def_cfa_offset 32
  33              		.cfi_offset 3, -32
  34              		.cfi_offset 4, -28
  35              		.cfi_offset 5, -24
  36              		.cfi_offset 6, -20
  37              		.cfi_offset 7, -16
  38              		.cfi_offset 8, -12
  39              		.cfi_offset 9, -8
  40              		.cfi_offset 14, -4
 107:.\Generated_Source\PSoC5/EZI2C.c ****     /* Configure fixed function block */
 108:.\Generated_Source\PSoC5/EZI2C.c ****     EZI2C_CFG_REG  = EZI2C_DEFAULT_CFG;
  41              		.loc 1 108 0
  42 0004 1648     		ldr	r0, .L3
 109:.\Generated_Source\PSoC5/EZI2C.c ****     EZI2C_XCFG_REG = EZI2C_DEFAULT_XCFG;
 110:.\Generated_Source\PSoC5/EZI2C.c ****     EZI2C_ADDR_REG = EZI2C_DEFAULT_ADDR;
 111:.\Generated_Source\PSoC5/EZI2C.c ****     EZI2C_CLKDIV1_REG = EZI2C_DEFAULT_CLKDIV1;
 112:.\Generated_Source\PSoC5/EZI2C.c ****     EZI2C_CLKDIV2_REG = EZI2C_DEFAULT_CLKDIV2;
 113:.\Generated_Source\PSoC5/EZI2C.c **** 
 114:.\Generated_Source\PSoC5/EZI2C.c **** #if (EZI2C_TWO_ADDRESSES == EZI2C_ADDRESSES)
 115:.\Generated_Source\PSoC5/EZI2C.c ****     /* Set address variables */
 116:.\Generated_Source\PSoC5/EZI2C.c ****     EZI2C_SetAddress1(EZI2C_DEFAULT_ADDR1);
 117:.\Generated_Source\PSoC5/EZI2C.c ****     EZI2C_SetAddress2(EZI2C_DEFAULT_ADDR2);
 118:.\Generated_Source\PSoC5/EZI2C.c **** #endif /* #if (EZI2C_TWO_ADDRESSES == EZI2C_ADDRESSES) */
 119:.\Generated_Source\PSoC5/EZI2C.c **** 
 120:.\Generated_Source\PSoC5/EZI2C.c ****     /* Configure interrupt */
 121:.\Generated_Source\PSoC5/EZI2C.c ****     CyIntDisable         (EZI2C_ISR_NUMBER);
  43              		.loc 1 121 0
  44 0006 174B     		ldr	r3, .L3+4
 110:.\Generated_Source\PSoC5/EZI2C.c ****     EZI2C_CLKDIV1_REG = EZI2C_DEFAULT_CLKDIV1;
  45              		.loc 1 110 0
  46 0008 DFF880E0 		ldr	lr, .L3+44
 109:.\Generated_Source\PSoC5/EZI2C.c ****     EZI2C_XCFG_REG = EZI2C_DEFAULT_XCFG;
  47              		.loc 1 109 0
  48 000c 1649     		ldr	r1, .L3+8
ARM GAS  C:\Users\JOSEAN~1\AppData\Local\Temp\cc5AOud0.s 			page 4


 112:.\Generated_Source\PSoC5/EZI2C.c **** 
  49              		.loc 1 112 0
  50 000e 174D     		ldr	r5, .L3+12
 111:.\Generated_Source\PSoC5/EZI2C.c ****     EZI2C_CLKDIV2_REG = EZI2C_DEFAULT_CLKDIV2;
  51              		.loc 1 111 0
  52 0010 174E     		ldr	r6, .L3+16
 112:.\Generated_Source\PSoC5/EZI2C.c **** 
  53              		.loc 1 112 0
  54 0012 0024     		movs	r4, #0
  55              		.loc 1 121 0
  56 0014 4FF40042 		mov	r2, #32768
 110:.\Generated_Source\PSoC5/EZI2C.c ****     EZI2C_CLKDIV1_REG = EZI2C_DEFAULT_CLKDIV1;
  57              		.loc 1 110 0
  58 0018 4FF0080C 		mov	ip, #8
 108:.\Generated_Source\PSoC5/EZI2C.c ****     EZI2C_XCFG_REG = EZI2C_DEFAULT_XCFG;
  59              		.loc 1 108 0
  60 001c 4FF00109 		mov	r9, #1
 109:.\Generated_Source\PSoC5/EZI2C.c ****     EZI2C_ADDR_REG = EZI2C_DEFAULT_ADDR;
  61              		.loc 1 109 0
  62 0020 4FF08108 		mov	r8, #129
 111:.\Generated_Source\PSoC5/EZI2C.c ****     EZI2C_CLKDIV2_REG = EZI2C_DEFAULT_CLKDIV2;
  63              		.loc 1 111 0
  64 0024 1E27     		movs	r7, #30
 108:.\Generated_Source\PSoC5/EZI2C.c ****     EZI2C_XCFG_REG = EZI2C_DEFAULT_XCFG;
  65              		.loc 1 108 0
  66 0026 80F80090 		strb	r9, [r0]
 109:.\Generated_Source\PSoC5/EZI2C.c ****     EZI2C_ADDR_REG = EZI2C_DEFAULT_ADDR;
  67              		.loc 1 109 0
  68 002a 81F80080 		strb	r8, [r1]
 122:.\Generated_Source\PSoC5/EZI2C.c ****     CyIntSetPriority     (EZI2C_ISR_NUMBER, EZI2C_ISR_PRIORITY);
  69              		.loc 1 122 0
  70 002e 0F20     		movs	r0, #15
 110:.\Generated_Source\PSoC5/EZI2C.c ****     EZI2C_CLKDIV1_REG = EZI2C_DEFAULT_CLKDIV1;
  71              		.loc 1 110 0
  72 0030 8EF800C0 		strb	ip, [lr]
  73              		.loc 1 122 0
  74 0034 0721     		movs	r1, #7
 111:.\Generated_Source\PSoC5/EZI2C.c ****     EZI2C_CLKDIV2_REG = EZI2C_DEFAULT_CLKDIV2;
  75              		.loc 1 111 0
  76 0036 3770     		strb	r7, [r6]
 112:.\Generated_Source\PSoC5/EZI2C.c **** 
  77              		.loc 1 112 0
  78 0038 2C70     		strb	r4, [r5]
 121:.\Generated_Source\PSoC5/EZI2C.c ****     CyIntSetPriority     (EZI2C_ISR_NUMBER, EZI2C_ISR_PRIORITY);
  79              		.loc 1 121 0
  80 003a 1A60     		str	r2, [r3]
  81              		.loc 1 122 0
  82 003c FFF7FEFF 		bl	CyIntSetPriority
  83              	.LVL0:
 123:.\Generated_Source\PSoC5/EZI2C.c ****     (void) CyIntSetVector(EZI2C_ISR_NUMBER, &EZI2C_ISR);
  84              		.loc 1 123 0
  85 0040 0C49     		ldr	r1, .L3+20
  86 0042 0F20     		movs	r0, #15
  87 0044 FFF7FEFF 		bl	CyIntSetVector
  88              	.LVL1:
 124:.\Generated_Source\PSoC5/EZI2C.c **** 
 125:.\Generated_Source\PSoC5/EZI2C.c ****      /* Reset state and status to default */
ARM GAS  C:\Users\JOSEAN~1\AppData\Local\Temp\cc5AOud0.s 			page 5


 126:.\Generated_Source\PSoC5/EZI2C.c ****     EZI2C_curState  = EZI2C_SM_IDLE;
  89              		.loc 1 126 0
  90 0048 0B4D     		ldr	r5, .L3+24
 127:.\Generated_Source\PSoC5/EZI2C.c ****     EZI2C_curStatus = 0u;
  91              		.loc 1 127 0
  92 004a 0C48     		ldr	r0, .L3+28
 128:.\Generated_Source\PSoC5/EZI2C.c **** 
 129:.\Generated_Source\PSoC5/EZI2C.c ****     /* Reset all buffer 1 indexes (primary address) */
 130:.\Generated_Source\PSoC5/EZI2C.c ****     EZI2C_rwOffsetS1  = 0u;
  93              		.loc 1 130 0
  94 004c 0C49     		ldr	r1, .L3+32
 131:.\Generated_Source\PSoC5/EZI2C.c ****     EZI2C_rwIndexS1   = 0u;
  95              		.loc 1 131 0
  96 004e 0D4A     		ldr	r2, .L3+36
 132:.\Generated_Source\PSoC5/EZI2C.c ****     EZI2C_wrProtectS1 = 0u;
  97              		.loc 1 132 0
  98 0050 0D4B     		ldr	r3, .L3+40
 126:.\Generated_Source\PSoC5/EZI2C.c ****     EZI2C_curStatus = 0u;
  99              		.loc 1 126 0
 100 0052 2C70     		strb	r4, [r5]
 127:.\Generated_Source\PSoC5/EZI2C.c **** 
 101              		.loc 1 127 0
 102 0054 0470     		strb	r4, [r0]
 130:.\Generated_Source\PSoC5/EZI2C.c ****     EZI2C_rwIndexS1   = 0u;
 103              		.loc 1 130 0
 104 0056 0C70     		strb	r4, [r1]
 131:.\Generated_Source\PSoC5/EZI2C.c ****     EZI2C_wrProtectS1 = 0u;
 105              		.loc 1 131 0
 106 0058 1470     		strb	r4, [r2]
 107              		.loc 1 132 0
 108 005a 1C80     		strh	r4, [r3]	@ movhi
 109 005c BDE8F883 		pop	{r3, r4, r5, r6, r7, r8, r9, pc}
 110              	.L4:
 111              		.align	2
 112              	.L3:
 113 0060 D6490040 		.word	1073760726
 114 0064 80E100E0 		.word	-536813184
 115 0068 C8490040 		.word	1073760712
 116 006c DC490040 		.word	1073760732
 117 0070 DB490040 		.word	1073760731
 118 0074 00000000 		.word	EZI2C_ISR
 119 0078 00000000 		.word	EZI2C_curState
 120 007c 00000000 		.word	EZI2C_curStatus
 121 0080 00000000 		.word	EZI2C_rwOffsetS1
 122 0084 00000000 		.word	EZI2C_rwIndexS1
 123 0088 00000000 		.word	EZI2C_wrProtectS1
 124 008c CA490040 		.word	1073760714
 125              		.cfi_endproc
 126              	.LFE0:
 127              		.size	EZI2C_Init, .-EZI2C_Init
 128              		.section	.text.EZI2C_Enable,"ax",%progbits
 129              		.align	2
 130              		.global	EZI2C_Enable
 131              		.thumb
 132              		.thumb_func
 133              		.type	EZI2C_Enable, %function
 134              	EZI2C_Enable:
ARM GAS  C:\Users\JOSEAN~1\AppData\Local\Temp\cc5AOud0.s 			page 6


 135              	.LFB1:
 133:.\Generated_Source\PSoC5/EZI2C.c **** 
 134:.\Generated_Source\PSoC5/EZI2C.c **** #if (EZI2C_ADDRESSES == EZI2C_TWO_ADDRESSES)
 135:.\Generated_Source\PSoC5/EZI2C.c ****     /* Reset all buffer 2 indexes (secondary address) */
 136:.\Generated_Source\PSoC5/EZI2C.c ****     EZI2C_rwOffsetS2  = 0u;
 137:.\Generated_Source\PSoC5/EZI2C.c ****     EZI2C_rwIndexS2   = 0u;
 138:.\Generated_Source\PSoC5/EZI2C.c ****     EZI2C_wrProtectS2 = 0u;
 139:.\Generated_Source\PSoC5/EZI2C.c **** #endif  /* (EZI2C_ADDRESSES == EZI2C_TWO_ADDRESSES) */
 140:.\Generated_Source\PSoC5/EZI2C.c **** }
 141:.\Generated_Source\PSoC5/EZI2C.c **** 
 142:.\Generated_Source\PSoC5/EZI2C.c **** 
 143:.\Generated_Source\PSoC5/EZI2C.c **** /*******************************************************************************
 144:.\Generated_Source\PSoC5/EZI2C.c **** * Function Name: EZI2C_Enable
 145:.\Generated_Source\PSoC5/EZI2C.c **** ********************************************************************************
 146:.\Generated_Source\PSoC5/EZI2C.c **** *
 147:.\Generated_Source\PSoC5/EZI2C.c **** * Summary:
 148:.\Generated_Source\PSoC5/EZI2C.c **** *  Activates the hardware and begins component operation.Calls EZI2C_EnableInt()
 149:.\Generated_Source\PSoC5/EZI2C.c **** *  to enable the I2C component interrupt. It is not necessary to call
 150:.\Generated_Source\PSoC5/EZI2C.c **** *  EZI2C_Enable() because the EZI2C_Start() API calls this function, which is
 151:.\Generated_Source\PSoC5/EZI2C.c **** *  the preferred method to begin component operation.
 152:.\Generated_Source\PSoC5/EZI2C.c **** *
 153:.\Generated_Source\PSoC5/EZI2C.c **** * Parameters:
 154:.\Generated_Source\PSoC5/EZI2C.c **** *  None.
 155:.\Generated_Source\PSoC5/EZI2C.c **** *
 156:.\Generated_Source\PSoC5/EZI2C.c **** * Return:
 157:.\Generated_Source\PSoC5/EZI2C.c **** *  None.
 158:.\Generated_Source\PSoC5/EZI2C.c **** *
 159:.\Generated_Source\PSoC5/EZI2C.c **** *******************************************************************************/
 160:.\Generated_Source\PSoC5/EZI2C.c **** void EZI2C_Enable(void) 
 161:.\Generated_Source\PSoC5/EZI2C.c **** {
 136              		.loc 1 161 0
 137              		.cfi_startproc
 138              		@ args = 0, pretend = 0, frame = 0
 139              		@ frame_needed = 0, uses_anonymous_args = 0
 140 0000 08B5     		push	{r3, lr}
 141              		.cfi_def_cfa_offset 8
 142              		.cfi_offset 3, -8
 143              		.cfi_offset 14, -4
 162:.\Generated_Source\PSoC5/EZI2C.c ****     uint8 intState;
 163:.\Generated_Source\PSoC5/EZI2C.c **** 
 164:.\Generated_Source\PSoC5/EZI2C.c ****     /* Enable power to block */
 165:.\Generated_Source\PSoC5/EZI2C.c ****     intState = CyEnterCriticalSection();
 144              		.loc 1 165 0
 145 0002 FFF7FEFF 		bl	CyEnterCriticalSection
 146              	.LVL2:
 166:.\Generated_Source\PSoC5/EZI2C.c ****     EZI2C_PM_ACT_CFG_REG  |= EZI2C_ACT_PWR_EN;
 147              		.loc 1 166 0
 148 0006 0849     		ldr	r1, .L7
 167:.\Generated_Source\PSoC5/EZI2C.c ****     EZI2C_PM_STBY_CFG_REG |= EZI2C_STBY_PWR_EN;
 149              		.loc 1 167 0
 150 0008 084A     		ldr	r2, .L7+4
 166:.\Generated_Source\PSoC5/EZI2C.c ****     EZI2C_PM_ACT_CFG_REG  |= EZI2C_ACT_PWR_EN;
 151              		.loc 1 166 0
 152 000a 0B78     		ldrb	r3, [r1]	@ zero_extendqisi2
 153 000c 43F00403 		orr	r3, r3, #4
 154 0010 0B70     		strb	r3, [r1]
 155              		.loc 1 167 0
ARM GAS  C:\Users\JOSEAN~1\AppData\Local\Temp\cc5AOud0.s 			page 7


 156 0012 1378     		ldrb	r3, [r2]	@ zero_extendqisi2
 157 0014 43F00403 		orr	r3, r3, #4
 158 0018 1370     		strb	r3, [r2]
 168:.\Generated_Source\PSoC5/EZI2C.c ****     CyExitCriticalSection(intState);
 159              		.loc 1 168 0
 160 001a FFF7FEFF 		bl	CyExitCriticalSection
 161              	.LVL3:
 169:.\Generated_Source\PSoC5/EZI2C.c **** 
 170:.\Generated_Source\PSoC5/EZI2C.c ****     /* Enable interrupt to start operation */
 171:.\Generated_Source\PSoC5/EZI2C.c ****     EZI2C_EnableInt();
 162              		.loc 1 171 0
 163 001e 044B     		ldr	r3, .L7+8
 164 0020 4FF40042 		mov	r2, #32768
 165 0024 1A60     		str	r2, [r3]
 166 0026 08BD     		pop	{r3, pc}
 167              	.L8:
 168              		.align	2
 169              	.L7:
 170 0028 A5430040 		.word	1073759141
 171 002c B5430040 		.word	1073759157
 172 0030 00E100E0 		.word	-536813312
 173              		.cfi_endproc
 174              	.LFE1:
 175              		.size	EZI2C_Enable, .-EZI2C_Enable
 176              		.section	.text.EZI2C_Start,"ax",%progbits
 177              		.align	2
 178              		.global	EZI2C_Start
 179              		.thumb
 180              		.thumb_func
 181              		.type	EZI2C_Start, %function
 182              	EZI2C_Start:
 183              	.LFB2:
 172:.\Generated_Source\PSoC5/EZI2C.c **** }
 173:.\Generated_Source\PSoC5/EZI2C.c **** 
 174:.\Generated_Source\PSoC5/EZI2C.c **** 
 175:.\Generated_Source\PSoC5/EZI2C.c **** /*******************************************************************************
 176:.\Generated_Source\PSoC5/EZI2C.c **** * Function Name: EZI2C_Start
 177:.\Generated_Source\PSoC5/EZI2C.c **** ********************************************************************************
 178:.\Generated_Source\PSoC5/EZI2C.c **** *
 179:.\Generated_Source\PSoC5/EZI2C.c **** * Summary:
 180:.\Generated_Source\PSoC5/EZI2C.c **** *  This is the preferred method to begin component operation. EZI2C_Start(),
 181:.\Generated_Source\PSoC5/EZI2C.c **** *  calls the EZI2C_Init() function, and then calls the EZI2C_Enable() function.
 182:.\Generated_Source\PSoC5/EZI2C.c **** *  It must be executed before I2C bus operation.
 183:.\Generated_Source\PSoC5/EZI2C.c **** *  This function enables the component interrupt because interrupt is required
 184:.\Generated_Source\PSoC5/EZI2C.c **** *  for most component operations.
 185:.\Generated_Source\PSoC5/EZI2C.c **** *
 186:.\Generated_Source\PSoC5/EZI2C.c **** * Parameters:
 187:.\Generated_Source\PSoC5/EZI2C.c **** *  None.
 188:.\Generated_Source\PSoC5/EZI2C.c **** *
 189:.\Generated_Source\PSoC5/EZI2C.c **** * Return:
 190:.\Generated_Source\PSoC5/EZI2C.c **** *  None.
 191:.\Generated_Source\PSoC5/EZI2C.c **** *
 192:.\Generated_Source\PSoC5/EZI2C.c **** * Reentrant:
 193:.\Generated_Source\PSoC5/EZI2C.c **** *  No.
 194:.\Generated_Source\PSoC5/EZI2C.c **** *
 195:.\Generated_Source\PSoC5/EZI2C.c **** *******************************************************************************/
 196:.\Generated_Source\PSoC5/EZI2C.c **** void EZI2C_Start(void) 
ARM GAS  C:\Users\JOSEAN~1\AppData\Local\Temp\cc5AOud0.s 			page 8


 197:.\Generated_Source\PSoC5/EZI2C.c **** {
 184              		.loc 1 197 0
 185              		.cfi_startproc
 186              		@ args = 0, pretend = 0, frame = 0
 187              		@ frame_needed = 0, uses_anonymous_args = 0
 188 0000 2DE9F047 		push	{r4, r5, r6, r7, r8, r9, r10, lr}
 189              		.cfi_def_cfa_offset 32
 190              		.cfi_offset 4, -32
 191              		.cfi_offset 5, -28
 192              		.cfi_offset 6, -24
 193              		.cfi_offset 7, -20
 194              		.cfi_offset 8, -16
 195              		.cfi_offset 9, -12
 196              		.cfi_offset 10, -8
 197              		.cfi_offset 14, -4
 198:.\Generated_Source\PSoC5/EZI2C.c ****     if (0u == EZI2C_initVar)
 198              		.loc 1 198 0
 199 0004 214D     		ldr	r5, .L13
 200 0006 2C78     		ldrb	r4, [r5]	@ zero_extendqisi2
 201 0008 64BB     		cbnz	r4, .L10
 202              	.LBB6:
 203              	.LBB7:
 121:.\Generated_Source\PSoC5/EZI2C.c ****     CyIntSetPriority     (EZI2C_ISR_NUMBER, EZI2C_ISR_PRIORITY);
 204              		.loc 1 121 0
 205 000a 214B     		ldr	r3, .L13+4
 111:.\Generated_Source\PSoC5/EZI2C.c ****     EZI2C_CLKDIV2_REG = EZI2C_DEFAULT_CLKDIV2;
 206              		.loc 1 111 0
 207 000c DFF8B4E0 		ldr	lr, .L13+56
 108:.\Generated_Source\PSoC5/EZI2C.c ****     EZI2C_XCFG_REG = EZI2C_DEFAULT_XCFG;
 208              		.loc 1 108 0
 209 0010 2048     		ldr	r0, .L13+8
 109:.\Generated_Source\PSoC5/EZI2C.c ****     EZI2C_ADDR_REG = EZI2C_DEFAULT_ADDR;
 210              		.loc 1 109 0
 211 0012 2149     		ldr	r1, .L13+12
 112:.\Generated_Source\PSoC5/EZI2C.c **** 
 212              		.loc 1 112 0
 213 0014 214F     		ldr	r7, .L13+16
 110:.\Generated_Source\PSoC5/EZI2C.c ****     EZI2C_CLKDIV1_REG = EZI2C_DEFAULT_CLKDIV1;
 214              		.loc 1 110 0
 215 0016 DFF8B080 		ldr	r8, .L13+60
 121:.\Generated_Source\PSoC5/EZI2C.c ****     CyIntSetPriority     (EZI2C_ISR_NUMBER, EZI2C_ISR_PRIORITY);
 216              		.loc 1 121 0
 217 001a 4FF40042 		mov	r2, #32768
 111:.\Generated_Source\PSoC5/EZI2C.c ****     EZI2C_CLKDIV2_REG = EZI2C_DEFAULT_CLKDIV2;
 218              		.loc 1 111 0
 219 001e 4FF01E0C 		mov	ip, #30
 108:.\Generated_Source\PSoC5/EZI2C.c ****     EZI2C_XCFG_REG = EZI2C_DEFAULT_XCFG;
 220              		.loc 1 108 0
 221 0022 0126     		movs	r6, #1
 109:.\Generated_Source\PSoC5/EZI2C.c ****     EZI2C_ADDR_REG = EZI2C_DEFAULT_ADDR;
 222              		.loc 1 109 0
 223 0024 4FF0810A 		mov	r10, #129
 110:.\Generated_Source\PSoC5/EZI2C.c ****     EZI2C_CLKDIV1_REG = EZI2C_DEFAULT_CLKDIV1;
 224              		.loc 1 110 0
 225 0028 4FF00809 		mov	r9, #8
 108:.\Generated_Source\PSoC5/EZI2C.c ****     EZI2C_XCFG_REG = EZI2C_DEFAULT_XCFG;
 226              		.loc 1 108 0
ARM GAS  C:\Users\JOSEAN~1\AppData\Local\Temp\cc5AOud0.s 			page 9


 227 002c 0670     		strb	r6, [r0]
 109:.\Generated_Source\PSoC5/EZI2C.c ****     EZI2C_ADDR_REG = EZI2C_DEFAULT_ADDR;
 228              		.loc 1 109 0
 229 002e 81F800A0 		strb	r10, [r1]
 122:.\Generated_Source\PSoC5/EZI2C.c ****     (void) CyIntSetVector(EZI2C_ISR_NUMBER, &EZI2C_ISR);
 230              		.loc 1 122 0
 231 0032 0F20     		movs	r0, #15
 110:.\Generated_Source\PSoC5/EZI2C.c ****     EZI2C_CLKDIV1_REG = EZI2C_DEFAULT_CLKDIV1;
 232              		.loc 1 110 0
 233 0034 88F80090 		strb	r9, [r8]
 122:.\Generated_Source\PSoC5/EZI2C.c ****     (void) CyIntSetVector(EZI2C_ISR_NUMBER, &EZI2C_ISR);
 234              		.loc 1 122 0
 235 0038 0721     		movs	r1, #7
 111:.\Generated_Source\PSoC5/EZI2C.c ****     EZI2C_CLKDIV2_REG = EZI2C_DEFAULT_CLKDIV2;
 236              		.loc 1 111 0
 237 003a 8EF800C0 		strb	ip, [lr]
 112:.\Generated_Source\PSoC5/EZI2C.c **** 
 238              		.loc 1 112 0
 239 003e 3C70     		strb	r4, [r7]
 121:.\Generated_Source\PSoC5/EZI2C.c ****     CyIntSetPriority     (EZI2C_ISR_NUMBER, EZI2C_ISR_PRIORITY);
 240              		.loc 1 121 0
 241 0040 1A60     		str	r2, [r3]
 122:.\Generated_Source\PSoC5/EZI2C.c ****     (void) CyIntSetVector(EZI2C_ISR_NUMBER, &EZI2C_ISR);
 242              		.loc 1 122 0
 243 0042 FFF7FEFF 		bl	CyIntSetPriority
 244              	.LVL4:
 123:.\Generated_Source\PSoC5/EZI2C.c **** 
 245              		.loc 1 123 0
 246 0046 1649     		ldr	r1, .L13+20
 247 0048 0F20     		movs	r0, #15
 248 004a FFF7FEFF 		bl	CyIntSetVector
 249              	.LVL5:
 126:.\Generated_Source\PSoC5/EZI2C.c ****     EZI2C_curStatus = 0u;
 250              		.loc 1 126 0
 251 004e 154F     		ldr	r7, .L13+24
 127:.\Generated_Source\PSoC5/EZI2C.c **** 
 252              		.loc 1 127 0
 253 0050 1548     		ldr	r0, .L13+28
 130:.\Generated_Source\PSoC5/EZI2C.c ****     EZI2C_rwIndexS1   = 0u;
 254              		.loc 1 130 0
 255 0052 1649     		ldr	r1, .L13+32
 131:.\Generated_Source\PSoC5/EZI2C.c ****     EZI2C_wrProtectS1 = 0u;
 256              		.loc 1 131 0
 257 0054 164A     		ldr	r2, .L13+36
 132:.\Generated_Source\PSoC5/EZI2C.c **** 
 258              		.loc 1 132 0
 259 0056 174B     		ldr	r3, .L13+40
 126:.\Generated_Source\PSoC5/EZI2C.c ****     EZI2C_curStatus = 0u;
 260              		.loc 1 126 0
 261 0058 3C70     		strb	r4, [r7]
 262              	.LBE7:
 263              	.LBE6:
 199:.\Generated_Source\PSoC5/EZI2C.c ****     {
 200:.\Generated_Source\PSoC5/EZI2C.c ****         EZI2C_Init();
 201:.\Generated_Source\PSoC5/EZI2C.c ****         EZI2C_initVar = 1u; /* Component initialized */
 264              		.loc 1 201 0
 265 005a 2E70     		strb	r6, [r5]
ARM GAS  C:\Users\JOSEAN~1\AppData\Local\Temp\cc5AOud0.s 			page 10


 266              	.LBB9:
 267              	.LBB8:
 127:.\Generated_Source\PSoC5/EZI2C.c **** 
 268              		.loc 1 127 0
 269 005c 0470     		strb	r4, [r0]
 130:.\Generated_Source\PSoC5/EZI2C.c ****     EZI2C_rwIndexS1   = 0u;
 270              		.loc 1 130 0
 271 005e 0C70     		strb	r4, [r1]
 131:.\Generated_Source\PSoC5/EZI2C.c ****     EZI2C_wrProtectS1 = 0u;
 272              		.loc 1 131 0
 273 0060 1470     		strb	r4, [r2]
 132:.\Generated_Source\PSoC5/EZI2C.c **** 
 274              		.loc 1 132 0
 275 0062 1C80     		strh	r4, [r3]	@ movhi
 276              	.L10:
 277              	.LBE8:
 278              	.LBE9:
 279              	.LBB10:
 280              	.LBB11:
 165:.\Generated_Source\PSoC5/EZI2C.c ****     EZI2C_PM_ACT_CFG_REG  |= EZI2C_ACT_PWR_EN;
 281              		.loc 1 165 0
 282 0064 FFF7FEFF 		bl	CyEnterCriticalSection
 283              	.LVL6:
 166:.\Generated_Source\PSoC5/EZI2C.c ****     EZI2C_PM_STBY_CFG_REG |= EZI2C_STBY_PWR_EN;
 284              		.loc 1 166 0
 285 0068 1349     		ldr	r1, .L13+44
 167:.\Generated_Source\PSoC5/EZI2C.c ****     CyExitCriticalSection(intState);
 286              		.loc 1 167 0
 287 006a 144A     		ldr	r2, .L13+48
 166:.\Generated_Source\PSoC5/EZI2C.c ****     EZI2C_PM_STBY_CFG_REG |= EZI2C_STBY_PWR_EN;
 288              		.loc 1 166 0
 289 006c 0B78     		ldrb	r3, [r1]	@ zero_extendqisi2
 290 006e 43F00403 		orr	r3, r3, #4
 291 0072 0B70     		strb	r3, [r1]
 167:.\Generated_Source\PSoC5/EZI2C.c ****     CyExitCriticalSection(intState);
 292              		.loc 1 167 0
 293 0074 1378     		ldrb	r3, [r2]	@ zero_extendqisi2
 294 0076 43F00403 		orr	r3, r3, #4
 295 007a 1370     		strb	r3, [r2]
 168:.\Generated_Source\PSoC5/EZI2C.c **** 
 296              		.loc 1 168 0
 297 007c FFF7FEFF 		bl	CyExitCriticalSection
 298              	.LVL7:
 171:.\Generated_Source\PSoC5/EZI2C.c **** }
 299              		.loc 1 171 0
 300 0080 0F4B     		ldr	r3, .L13+52
 301 0082 4FF40042 		mov	r2, #32768
 302 0086 1A60     		str	r2, [r3]
 303 0088 BDE8F087 		pop	{r4, r5, r6, r7, r8, r9, r10, pc}
 304              	.L14:
 305              		.align	2
 306              	.L13:
 307 008c 00000000 		.word	.LANCHOR0
 308 0090 80E100E0 		.word	-536813184
 309 0094 D6490040 		.word	1073760726
 310 0098 C8490040 		.word	1073760712
 311 009c DC490040 		.word	1073760732
ARM GAS  C:\Users\JOSEAN~1\AppData\Local\Temp\cc5AOud0.s 			page 11


 312 00a0 00000000 		.word	EZI2C_ISR
 313 00a4 00000000 		.word	EZI2C_curState
 314 00a8 00000000 		.word	EZI2C_curStatus
 315 00ac 00000000 		.word	EZI2C_rwOffsetS1
 316 00b0 00000000 		.word	EZI2C_rwIndexS1
 317 00b4 00000000 		.word	EZI2C_wrProtectS1
 318 00b8 A5430040 		.word	1073759141
 319 00bc B5430040 		.word	1073759157
 320 00c0 00E100E0 		.word	-536813312
 321 00c4 DB490040 		.word	1073760731
 322 00c8 CA490040 		.word	1073760714
 323              	.LBE11:
 324              	.LBE10:
 325              		.cfi_endproc
 326              	.LFE2:
 327              		.size	EZI2C_Start, .-EZI2C_Start
 328              		.section	.text.EZI2C_Stop,"ax",%progbits
 329              		.align	2
 330              		.global	EZI2C_Stop
 331              		.thumb
 332              		.thumb_func
 333              		.type	EZI2C_Stop, %function
 334              	EZI2C_Stop:
 335              	.LFB3:
 202:.\Generated_Source\PSoC5/EZI2C.c ****     }
 203:.\Generated_Source\PSoC5/EZI2C.c **** 
 204:.\Generated_Source\PSoC5/EZI2C.c ****     EZI2C_Enable();
 205:.\Generated_Source\PSoC5/EZI2C.c **** }
 206:.\Generated_Source\PSoC5/EZI2C.c **** 
 207:.\Generated_Source\PSoC5/EZI2C.c **** 
 208:.\Generated_Source\PSoC5/EZI2C.c **** /*******************************************************************************
 209:.\Generated_Source\PSoC5/EZI2C.c **** * Function Name: EZI2C_Stop
 210:.\Generated_Source\PSoC5/EZI2C.c **** ********************************************************************************
 211:.\Generated_Source\PSoC5/EZI2C.c **** *
 212:.\Generated_Source\PSoC5/EZI2C.c **** * Summary:
 213:.\Generated_Source\PSoC5/EZI2C.c **** *  Disables I2C hardware and component interrupt. The I2C bus is released if it
 214:.\Generated_Source\PSoC5/EZI2C.c **** *  was locked up by the component.
 215:.\Generated_Source\PSoC5/EZI2C.c **** *
 216:.\Generated_Source\PSoC5/EZI2C.c **** * Parameters:
 217:.\Generated_Source\PSoC5/EZI2C.c **** *  None.
 218:.\Generated_Source\PSoC5/EZI2C.c **** *
 219:.\Generated_Source\PSoC5/EZI2C.c **** * Return:
 220:.\Generated_Source\PSoC5/EZI2C.c **** *  None.
 221:.\Generated_Source\PSoC5/EZI2C.c **** *
 222:.\Generated_Source\PSoC5/EZI2C.c **** *******************************************************************************/
 223:.\Generated_Source\PSoC5/EZI2C.c **** void EZI2C_Stop(void) 
 224:.\Generated_Source\PSoC5/EZI2C.c **** {
 336              		.loc 1 224 0
 337              		.cfi_startproc
 338              		@ args = 0, pretend = 0, frame = 0
 339              		@ frame_needed = 0, uses_anonymous_args = 0
 340 0000 2DE9F84F 		push	{r3, r4, r5, r6, r7, r8, r9, r10, fp, lr}
 341              		.cfi_def_cfa_offset 40
 342              		.cfi_offset 3, -40
 343              		.cfi_offset 4, -36
 344              		.cfi_offset 5, -32
 345              		.cfi_offset 6, -28
ARM GAS  C:\Users\JOSEAN~1\AppData\Local\Temp\cc5AOud0.s 			page 12


 346              		.cfi_offset 7, -24
 347              		.cfi_offset 8, -20
 348              		.cfi_offset 9, -16
 349              		.cfi_offset 10, -12
 350              		.cfi_offset 11, -8
 351              		.cfi_offset 14, -4
 225:.\Generated_Source\PSoC5/EZI2C.c ****     uint8  intState;
 226:.\Generated_Source\PSoC5/EZI2C.c ****     uint16 blockResetCycles;
 227:.\Generated_Source\PSoC5/EZI2C.c **** 
 228:.\Generated_Source\PSoC5/EZI2C.c ****     EZI2C_DisableInt();
 352              		.loc 1 228 0
 353 0004 254B     		ldr	r3, .L17
 229:.\Generated_Source\PSoC5/EZI2C.c **** 
 230:.\Generated_Source\PSoC5/EZI2C.c ****     /* Store registers effected by block disable */
 231:.\Generated_Source\PSoC5/EZI2C.c ****     EZI2C_backup.adr     = EZI2C_ADDR_REG;
 354              		.loc 1 231 0
 355 0006 DFF8BC80 		ldr	r8, .L17+40
 232:.\Generated_Source\PSoC5/EZI2C.c ****     EZI2C_backup.clkDiv1 = EZI2C_CLKDIV1_REG;
 356              		.loc 1 232 0
 357 000a 254F     		ldr	r7, .L17+4
 233:.\Generated_Source\PSoC5/EZI2C.c ****     EZI2C_backup.clkDiv2 = EZI2C_CLKDIV2_REG;
 358              		.loc 1 233 0
 359 000c 254E     		ldr	r6, .L17+8
 228:.\Generated_Source\PSoC5/EZI2C.c **** 
 360              		.loc 1 228 0
 361 000e 4FF40049 		mov	r9, #32768
 362 0012 C3F80090 		str	r9, [r3]
 234:.\Generated_Source\PSoC5/EZI2C.c **** 
 235:.\Generated_Source\PSoC5/EZI2C.c ****     /* Calculate number of cycles to reset block */
 236:.\Generated_Source\PSoC5/EZI2C.c ****     blockResetCycles = ((uint16) ((uint16) EZI2C_CLKDIV2_REG << 8u) | EZI2C_CLKDIV1_REG) + 1u;
 237:.\Generated_Source\PSoC5/EZI2C.c **** 
 238:.\Generated_Source\PSoC5/EZI2C.c ****     /* Disable block */
 239:.\Generated_Source\PSoC5/EZI2C.c ****     EZI2C_CFG_REG &= (uint8) ~EZI2C_CFG_EN_SLAVE;
 363              		.loc 1 239 0
 364 0016 244D     		ldr	r5, .L17+12
 231:.\Generated_Source\PSoC5/EZI2C.c ****     EZI2C_backup.clkDiv1 = EZI2C_CLKDIV1_REG;
 365              		.loc 1 231 0
 366 0018 98F800E0 		ldrb	lr, [r8]	@ zero_extendqisi2
 232:.\Generated_Source\PSoC5/EZI2C.c ****     EZI2C_backup.clkDiv2 = EZI2C_CLKDIV2_REG;
 367              		.loc 1 232 0
 368 001c 3978     		ldrb	r1, [r7]	@ zero_extendqisi2
 233:.\Generated_Source\PSoC5/EZI2C.c **** 
 369              		.loc 1 233 0
 370 001e 3278     		ldrb	r2, [r6]	@ zero_extendqisi2
 236:.\Generated_Source\PSoC5/EZI2C.c **** 
 371              		.loc 1 236 0
 372 0020 3078     		ldrb	r0, [r6]	@ zero_extendqisi2
 373 0022 3B78     		ldrb	r3, [r7]	@ zero_extendqisi2
 374              	.LVL8:
 375              		.loc 1 239 0
 376 0024 95F800C0 		ldrb	ip, [r5]	@ zero_extendqisi2
 236:.\Generated_Source\PSoC5/EZI2C.c **** 
 377              		.loc 1 236 0
 378 0028 43EA0020 		orr	r0, r3, r0, lsl #8
 379              	.LVL9:
 231:.\Generated_Source\PSoC5/EZI2C.c ****     EZI2C_backup.clkDiv1 = EZI2C_CLKDIV1_REG;
 380              		.loc 1 231 0
ARM GAS  C:\Users\JOSEAN~1\AppData\Local\Temp\cc5AOud0.s 			page 13


 381 002c 1F4C     		ldr	r4, .L17+16
 382              		.loc 1 239 0
 383 002e 0CF0FE03 		and	r3, ip, #254
 236:.\Generated_Source\PSoC5/EZI2C.c **** 
 384              		.loc 1 236 0
 385 0032 0130     		adds	r0, r0, #1
 386              		.loc 1 239 0
 387 0034 2B70     		strb	r3, [r5]
 240:.\Generated_Source\PSoC5/EZI2C.c ****     /* Wait for block reset before disable power */
 241:.\Generated_Source\PSoC5/EZI2C.c ****     CyDelayCycles((uint32) blockResetCycles);
 388              		.loc 1 241 0
 389 0036 80B2     		uxth	r0, r0
 231:.\Generated_Source\PSoC5/EZI2C.c ****     EZI2C_backup.clkDiv1 = EZI2C_CLKDIV1_REG;
 390              		.loc 1 231 0
 391 0038 84F802E0 		strb	lr, [r4, #2]
 232:.\Generated_Source\PSoC5/EZI2C.c ****     EZI2C_backup.clkDiv2 = EZI2C_CLKDIV2_REG;
 392              		.loc 1 232 0
 393 003c 2171     		strb	r1, [r4, #4]
 233:.\Generated_Source\PSoC5/EZI2C.c **** 
 394              		.loc 1 233 0
 395 003e 6271     		strb	r2, [r4, #5]
 396              		.loc 1 241 0
 397 0040 FFF7FEFF 		bl	CyDelayCycles
 398              	.LVL10:
 242:.\Generated_Source\PSoC5/EZI2C.c **** 
 243:.\Generated_Source\PSoC5/EZI2C.c ****     /* Disable power to block */
 244:.\Generated_Source\PSoC5/EZI2C.c ****     intState = CyEnterCriticalSection();
 399              		.loc 1 244 0
 400 0044 FFF7FEFF 		bl	CyEnterCriticalSection
 401              	.LVL11:
 245:.\Generated_Source\PSoC5/EZI2C.c ****     EZI2C_PM_ACT_CFG_REG  &= (uint8) ~EZI2C_ACT_PWR_EN;
 402              		.loc 1 245 0
 403 0048 1949     		ldr	r1, .L17+20
 246:.\Generated_Source\PSoC5/EZI2C.c ****     EZI2C_PM_STBY_CFG_REG &= (uint8) ~EZI2C_STBY_PWR_EN;
 404              		.loc 1 246 0
 405 004a 1A4A     		ldr	r2, .L17+24
 245:.\Generated_Source\PSoC5/EZI2C.c ****     EZI2C_PM_ACT_CFG_REG  &= (uint8) ~EZI2C_ACT_PWR_EN;
 406              		.loc 1 245 0
 407 004c 0B78     		ldrb	r3, [r1]	@ zero_extendqisi2
 247:.\Generated_Source\PSoC5/EZI2C.c ****     CyExitCriticalSection(intState);
 248:.\Generated_Source\PSoC5/EZI2C.c **** 
 249:.\Generated_Source\PSoC5/EZI2C.c ****     /* Enable block */
 250:.\Generated_Source\PSoC5/EZI2C.c ****     EZI2C_CFG_REG |= (uint8) EZI2C_CFG_EN_SLAVE;
 251:.\Generated_Source\PSoC5/EZI2C.c **** 
 252:.\Generated_Source\PSoC5/EZI2C.c ****     /* Restore registers effected by block disable. Ticket ID#198004 */
 253:.\Generated_Source\PSoC5/EZI2C.c ****     EZI2C_ADDR_REG    = EZI2C_backup.adr;
 254:.\Generated_Source\PSoC5/EZI2C.c ****     EZI2C_ADDR_REG    = EZI2C_backup.adr;
 255:.\Generated_Source\PSoC5/EZI2C.c ****     EZI2C_CLKDIV1_REG = EZI2C_backup.clkDiv1;
 256:.\Generated_Source\PSoC5/EZI2C.c ****     EZI2C_CLKDIV2_REG = EZI2C_backup.clkDiv2;
 257:.\Generated_Source\PSoC5/EZI2C.c **** 
 258:.\Generated_Source\PSoC5/EZI2C.c ****     EZI2C_ClearPendingInt();
 259:.\Generated_Source\PSoC5/EZI2C.c **** 
 260:.\Generated_Source\PSoC5/EZI2C.c ****     /* Reset state and status to default */
 261:.\Generated_Source\PSoC5/EZI2C.c ****     EZI2C_curState  = EZI2C_SM_IDLE;
 408              		.loc 1 261 0
 409 004e 4FF0000B 		mov	fp, #0
 245:.\Generated_Source\PSoC5/EZI2C.c ****     EZI2C_PM_STBY_CFG_REG &= (uint8) ~EZI2C_STBY_PWR_EN;
ARM GAS  C:\Users\JOSEAN~1\AppData\Local\Temp\cc5AOud0.s 			page 14


 410              		.loc 1 245 0
 411 0052 03F0FB03 		and	r3, r3, #251
 412 0056 0B70     		strb	r3, [r1]
 246:.\Generated_Source\PSoC5/EZI2C.c ****     EZI2C_PM_STBY_CFG_REG &= (uint8) ~EZI2C_STBY_PWR_EN;
 413              		.loc 1 246 0
 414 0058 1378     		ldrb	r3, [r2]	@ zero_extendqisi2
 415 005a 03F0FB03 		and	r3, r3, #251
 416 005e 1370     		strb	r3, [r2]
 247:.\Generated_Source\PSoC5/EZI2C.c ****     CyExitCriticalSection(intState);
 417              		.loc 1 247 0
 418 0060 FFF7FEFF 		bl	CyExitCriticalSection
 419              	.LVL12:
 250:.\Generated_Source\PSoC5/EZI2C.c **** 
 420              		.loc 1 250 0
 421 0064 2B78     		ldrb	r3, [r5]	@ zero_extendqisi2
 253:.\Generated_Source\PSoC5/EZI2C.c ****     EZI2C_ADDR_REG    = EZI2C_backup.adr;
 422              		.loc 1 253 0
 423 0066 94F802A0 		ldrb	r10, [r4, #2]	@ zero_extendqisi2
 255:.\Generated_Source\PSoC5/EZI2C.c ****     EZI2C_CLKDIV2_REG = EZI2C_backup.clkDiv2;
 424              		.loc 1 255 0
 425 006a 94F804E0 		ldrb	lr, [r4, #4]	@ zero_extendqisi2
 258:.\Generated_Source\PSoC5/EZI2C.c **** 
 426              		.loc 1 258 0
 427 006e 1248     		ldr	r0, .L17+28
 256:.\Generated_Source\PSoC5/EZI2C.c **** 
 428              		.loc 1 256 0
 429 0070 6479     		ldrb	r4, [r4, #5]	@ zero_extendqisi2
 430              		.loc 1 261 0
 431 0072 1249     		ldr	r1, .L17+32
 262:.\Generated_Source\PSoC5/EZI2C.c ****     EZI2C_curStatus = 0u;
 432              		.loc 1 262 0
 433 0074 124A     		ldr	r2, .L17+36
 250:.\Generated_Source\PSoC5/EZI2C.c **** 
 434              		.loc 1 250 0
 435 0076 43F00103 		orr	r3, r3, #1
 436 007a 2B70     		strb	r3, [r5]
 253:.\Generated_Source\PSoC5/EZI2C.c ****     EZI2C_ADDR_REG    = EZI2C_backup.adr;
 437              		.loc 1 253 0
 438 007c 88F800A0 		strb	r10, [r8]
 254:.\Generated_Source\PSoC5/EZI2C.c ****     EZI2C_CLKDIV1_REG = EZI2C_backup.clkDiv1;
 439              		.loc 1 254 0
 440 0080 88F800A0 		strb	r10, [r8]
 255:.\Generated_Source\PSoC5/EZI2C.c ****     EZI2C_CLKDIV2_REG = EZI2C_backup.clkDiv2;
 441              		.loc 1 255 0
 442 0084 87F800E0 		strb	lr, [r7]
 256:.\Generated_Source\PSoC5/EZI2C.c **** 
 443              		.loc 1 256 0
 444 0088 3470     		strb	r4, [r6]
 258:.\Generated_Source\PSoC5/EZI2C.c **** 
 445              		.loc 1 258 0
 446 008a C0F80090 		str	r9, [r0]
 261:.\Generated_Source\PSoC5/EZI2C.c ****     EZI2C_curStatus = 0u;
 447              		.loc 1 261 0
 448 008e 81F800B0 		strb	fp, [r1]
 449              		.loc 1 262 0
 450 0092 82F800B0 		strb	fp, [r2]
 451 0096 BDE8F88F 		pop	{r3, r4, r5, r6, r7, r8, r9, r10, fp, pc}
ARM GAS  C:\Users\JOSEAN~1\AppData\Local\Temp\cc5AOud0.s 			page 15


 452              	.L18:
 453 009a 00BF     		.align	2
 454              	.L17:
 455 009c 80E100E0 		.word	-536813184
 456 00a0 DB490040 		.word	1073760731
 457 00a4 DC490040 		.word	1073760732
 458 00a8 D6490040 		.word	1073760726
 459 00ac 00000000 		.word	EZI2C_backup
 460 00b0 A5430040 		.word	1073759141
 461 00b4 B5430040 		.word	1073759157
 462 00b8 80E200E0 		.word	-536812928
 463 00bc 00000000 		.word	EZI2C_curState
 464 00c0 00000000 		.word	EZI2C_curStatus
 465 00c4 CA490040 		.word	1073760714
 466              		.cfi_endproc
 467              	.LFE3:
 468              		.size	EZI2C_Stop, .-EZI2C_Stop
 469              		.section	.text.EZI2C_SetAddress1,"ax",%progbits
 470              		.align	2
 471              		.global	EZI2C_SetAddress1
 472              		.thumb
 473              		.thumb_func
 474              		.type	EZI2C_SetAddress1, %function
 475              	EZI2C_SetAddress1:
 476              	.LFB4:
 263:.\Generated_Source\PSoC5/EZI2C.c **** }
 264:.\Generated_Source\PSoC5/EZI2C.c **** 
 265:.\Generated_Source\PSoC5/EZI2C.c **** 
 266:.\Generated_Source\PSoC5/EZI2C.c **** /*******************************************************************************
 267:.\Generated_Source\PSoC5/EZI2C.c **** * Function Name: EZI2C_SetAddress1
 268:.\Generated_Source\PSoC5/EZI2C.c **** ********************************************************************************
 269:.\Generated_Source\PSoC5/EZI2C.c **** *
 270:.\Generated_Source\PSoC5/EZI2C.c **** * Summary:
 271:.\Generated_Source\PSoC5/EZI2C.c **** *  Sets the primary I2C slave address. This address is used by the master to
 272:.\Generated_Source\PSoC5/EZI2C.c **** *  access the primary data buffer.
 273:.\Generated_Source\PSoC5/EZI2C.c **** *
 274:.\Generated_Source\PSoC5/EZI2C.c **** * Parameters:
 275:.\Generated_Source\PSoC5/EZI2C.c **** *  address: Primary I2C slave address.
 276:.\Generated_Source\PSoC5/EZI2C.c **** *           This address is the 7-bit right-justified slave address and does not
 277:.\Generated_Source\PSoC5/EZI2C.c **** *           include the R/W bit.
 278:.\Generated_Source\PSoC5/EZI2C.c **** *           This value can be any address between 0 and 127 (0x00 to 0x7F).
 279:.\Generated_Source\PSoC5/EZI2C.c **** *
 280:.\Generated_Source\PSoC5/EZI2C.c **** * Return:
 281:.\Generated_Source\PSoC5/EZI2C.c **** *  None.
 282:.\Generated_Source\PSoC5/EZI2C.c **** *
 283:.\Generated_Source\PSoC5/EZI2C.c **** * Global variables:
 284:.\Generated_Source\PSoC5/EZI2C.c **** *  EZI2C_addrS1 - A new slave address for the first slave device is
 285:.\Generated_Source\PSoC5/EZI2C.c **** *  saved in it, if the component is configured to act as two slave devices.
 286:.\Generated_Source\PSoC5/EZI2C.c **** *
 287:.\Generated_Source\PSoC5/EZI2C.c **** * Reentrant:
 288:.\Generated_Source\PSoC5/EZI2C.c **** *  No, if two addresses are used.
 289:.\Generated_Source\PSoC5/EZI2C.c **** *
 290:.\Generated_Source\PSoC5/EZI2C.c **** *******************************************************************************/
 291:.\Generated_Source\PSoC5/EZI2C.c **** void EZI2C_SetAddress1(uint8 address) 
 292:.\Generated_Source\PSoC5/EZI2C.c **** {
 477              		.loc 1 292 0
 478              		.cfi_startproc
ARM GAS  C:\Users\JOSEAN~1\AppData\Local\Temp\cc5AOud0.s 			page 16


 479              		@ args = 0, pretend = 0, frame = 0
 480              		@ frame_needed = 0, uses_anonymous_args = 0
 481              		@ link register save eliminated.
 482              	.LVL13:
 293:.\Generated_Source\PSoC5/EZI2C.c **** #if (EZI2C_ONE_ADDRESS == EZI2C_ADDRESSES)
 294:.\Generated_Source\PSoC5/EZI2C.c ****     EZI2C_ADDR_REG = (address & EZI2C_SADDR_MASK);
 483              		.loc 1 294 0
 484 0000 024B     		ldr	r3, .L20
 485 0002 00F07F00 		and	r0, r0, #127
 486              	.LVL14:
 487 0006 1870     		strb	r0, [r3]
 488 0008 7047     		bx	lr
 489              	.L21:
 490 000a 00BF     		.align	2
 491              	.L20:
 492 000c CA490040 		.word	1073760714
 493              		.cfi_endproc
 494              	.LFE4:
 495              		.size	EZI2C_SetAddress1, .-EZI2C_SetAddress1
 496              		.section	.text.EZI2C_GetAddress1,"ax",%progbits
 497              		.align	2
 498              		.global	EZI2C_GetAddress1
 499              		.thumb
 500              		.thumb_func
 501              		.type	EZI2C_GetAddress1, %function
 502              	EZI2C_GetAddress1:
 503              	.LFB5:
 295:.\Generated_Source\PSoC5/EZI2C.c **** #else
 296:.\Generated_Source\PSoC5/EZI2C.c ****     EZI2C_addrS1   = (address & EZI2C_SADDR_MASK);
 297:.\Generated_Source\PSoC5/EZI2C.c **** #endif /* (EZI2C_ONE_ADDRESS == EZI2C_ADDRESSES) */
 298:.\Generated_Source\PSoC5/EZI2C.c **** }
 299:.\Generated_Source\PSoC5/EZI2C.c **** 
 300:.\Generated_Source\PSoC5/EZI2C.c **** 
 301:.\Generated_Source\PSoC5/EZI2C.c **** /*******************************************************************************
 302:.\Generated_Source\PSoC5/EZI2C.c **** * Function Name: EZI2C_GetAddress1
 303:.\Generated_Source\PSoC5/EZI2C.c **** ********************************************************************************
 304:.\Generated_Source\PSoC5/EZI2C.c **** *
 305:.\Generated_Source\PSoC5/EZI2C.c **** * Summary:
 306:.\Generated_Source\PSoC5/EZI2C.c **** *  Returns the primary I2C slave address.
 307:.\Generated_Source\PSoC5/EZI2C.c **** *  This address is the 7-bit right-justified slave address and does not include
 308:.\Generated_Source\PSoC5/EZI2C.c **** *  the R/W bit.
 309:.\Generated_Source\PSoC5/EZI2C.c **** *
 310:.\Generated_Source\PSoC5/EZI2C.c **** * Parameters:
 311:.\Generated_Source\PSoC5/EZI2C.c **** *  None.
 312:.\Generated_Source\PSoC5/EZI2C.c **** *
 313:.\Generated_Source\PSoC5/EZI2C.c **** * Return:
 314:.\Generated_Source\PSoC5/EZI2C.c **** *  Primary I2C slave address.
 315:.\Generated_Source\PSoC5/EZI2C.c **** *
 316:.\Generated_Source\PSoC5/EZI2C.c **** * Global variables:
 317:.\Generated_Source\PSoC5/EZI2C.c **** *  EZI2C_addrS1 - If component is configured to has two slave
 318:.\Generated_Source\PSoC5/EZI2C.c **** *  addresses than the primary address is saved here, otherwise the address is written to
 319:.\Generated_Source\PSoC5/EZI2C.c **** *  the register.
 320:.\Generated_Source\PSoC5/EZI2C.c **** *
 321:.\Generated_Source\PSoC5/EZI2C.c **** * Reentrant:
 322:.\Generated_Source\PSoC5/EZI2C.c **** *  No.
 323:.\Generated_Source\PSoC5/EZI2C.c **** *
 324:.\Generated_Source\PSoC5/EZI2C.c **** *******************************************************************************/
ARM GAS  C:\Users\JOSEAN~1\AppData\Local\Temp\cc5AOud0.s 			page 17


 325:.\Generated_Source\PSoC5/EZI2C.c **** uint8 EZI2C_GetAddress1(void) 
 326:.\Generated_Source\PSoC5/EZI2C.c **** {
 504              		.loc 1 326 0
 505              		.cfi_startproc
 506              		@ args = 0, pretend = 0, frame = 0
 507              		@ frame_needed = 0, uses_anonymous_args = 0
 508              		@ link register save eliminated.
 327:.\Generated_Source\PSoC5/EZI2C.c **** #if (EZI2C_ONE_ADDRESS == EZI2C_ADDRESSES)
 328:.\Generated_Source\PSoC5/EZI2C.c ****     return (EZI2C_ADDR_REG);
 509              		.loc 1 328 0
 510 0000 014B     		ldr	r3, .L23
 511 0002 1878     		ldrb	r0, [r3]	@ zero_extendqisi2
 329:.\Generated_Source\PSoC5/EZI2C.c **** #else
 330:.\Generated_Source\PSoC5/EZI2C.c ****     return (EZI2C_addrS1);
 331:.\Generated_Source\PSoC5/EZI2C.c **** #endif /* (EZI2C_ONE_ADDRESS == EZI2C_ADDRESSES) */
 332:.\Generated_Source\PSoC5/EZI2C.c **** }
 512              		.loc 1 332 0
 513 0004 7047     		bx	lr
 514              	.L24:
 515 0006 00BF     		.align	2
 516              	.L23:
 517 0008 CA490040 		.word	1073760714
 518              		.cfi_endproc
 519              	.LFE5:
 520              		.size	EZI2C_GetAddress1, .-EZI2C_GetAddress1
 521              		.section	.text.EZI2C_GetActivity,"ax",%progbits
 522              		.align	2
 523              		.global	EZI2C_GetActivity
 524              		.thumb
 525              		.thumb_func
 526              		.type	EZI2C_GetActivity, %function
 527              	EZI2C_GetActivity:
 528              	.LFB6:
 333:.\Generated_Source\PSoC5/EZI2C.c **** 
 334:.\Generated_Source\PSoC5/EZI2C.c **** 
 335:.\Generated_Source\PSoC5/EZI2C.c **** /*******************************************************************************
 336:.\Generated_Source\PSoC5/EZI2C.c **** * Function Name: EZI2C_GetActivity
 337:.\Generated_Source\PSoC5/EZI2C.c **** ********************************************************************************
 338:.\Generated_Source\PSoC5/EZI2C.c **** *
 339:.\Generated_Source\PSoC5/EZI2C.c **** * Summary:
 340:.\Generated_Source\PSoC5/EZI2C.c **** *  Returns a non-zero value if an I2C read or write cycle has occurred since
 341:.\Generated_Source\PSoC5/EZI2C.c **** *  the last time this function was called. The activity flag resets to zero at
 342:.\Generated_Source\PSoC5/EZI2C.c **** *  the end of this function call.
 343:.\Generated_Source\PSoC5/EZI2C.c **** *  The Read and Write busy flags are cleared when read, but the BUSY flag is
 344:.\Generated_Source\PSoC5/EZI2C.c **** *  only cleared when slave is free (i.e master finishes communication with
 345:.\Generated_Source\PSoC5/EZI2C.c **** *  slave generating Stop or repeated Start condition).
 346:.\Generated_Source\PSoC5/EZI2C.c **** *
 347:.\Generated_Source\PSoC5/EZI2C.c **** * Parameters:
 348:.\Generated_Source\PSoC5/EZI2C.c **** *  None
 349:.\Generated_Source\PSoC5/EZI2C.c **** *
 350:.\Generated_Source\PSoC5/EZI2C.c **** * Return:
 351:.\Generated_Source\PSoC5/EZI2C.c **** *  Status of I2C activity.
 352:.\Generated_Source\PSoC5/EZI2C.c **** *
 353:.\Generated_Source\PSoC5/EZI2C.c **** *   EZI2C_STATUS_READ1   Set if a Read sequence is detected for the first
 354:.\Generated_Source\PSoC5/EZI2C.c **** *                                   address. Cleared when the status is read.
 355:.\Generated_Source\PSoC5/EZI2C.c **** *
 356:.\Generated_Source\PSoC5/EZI2C.c **** *   EZI2C_STATUS_WRITE1  Set if a Write sequence is detected for the first
ARM GAS  C:\Users\JOSEAN~1\AppData\Local\Temp\cc5AOud0.s 			page 18


 357:.\Generated_Source\PSoC5/EZI2C.c **** *                                   address. Cleared when the status is  read.
 358:.\Generated_Source\PSoC5/EZI2C.c **** *
 359:.\Generated_Source\PSoC5/EZI2C.c **** *   EZI2C_STATUS_READ2   Set if a Read sequence is detected for the second
 360:.\Generated_Source\PSoC5/EZI2C.c **** *                                   address (if enabled). Cleared when the status
 361:.\Generated_Source\PSoC5/EZI2C.c **** *                                   read.
 362:.\Generated_Source\PSoC5/EZI2C.c **** *
 363:.\Generated_Source\PSoC5/EZI2C.c **** *   EZI2C_STATUS_WRITE2  Set if a Write sequence is detected for the second
 364:.\Generated_Source\PSoC5/EZI2C.c **** *                                   address (if enabled). Cleared when the status is
 365:.\Generated_Source\PSoC5/EZI2C.c **** *                                   read.
 366:.\Generated_Source\PSoC5/EZI2C.c **** *
 367:.\Generated_Source\PSoC5/EZI2C.c **** *   EZI2C_STATUS_BUSY    Set when the master starts communication with
 368:.\Generated_Source\PSoC5/EZI2C.c **** *                                   the slave (the slave is addressed with Start or
 369:.\Generated_Source\PSoC5/EZI2C.c **** *                                   repeated Start) and cleared when the master
 370:.\Generated_Source\PSoC5/EZI2C.c **** *                                   finishes communication (a Stop or repeated
 371:.\Generated_Source\PSoC5/EZI2C.c **** *                                   Start condition is generated).
 372:.\Generated_Source\PSoC5/EZI2C.c **** *
 373:.\Generated_Source\PSoC5/EZI2C.c **** *   EZI2C_STATUS_ERR     Set when the I2C hardware is detected, cleared
 374:.\Generated_Source\PSoC5/EZI2C.c **** *                                   when the status is read.
 375:.\Generated_Source\PSoC5/EZI2C.c **** *
 376:.\Generated_Source\PSoC5/EZI2C.c **** * Global variables:
 377:.\Generated_Source\PSoC5/EZI2C.c **** *  EZI2C_curStatus - The global variable which stores the current
 378:.\Generated_Source\PSoC5/EZI2C.c **** *  component status.
 379:.\Generated_Source\PSoC5/EZI2C.c **** *
 380:.\Generated_Source\PSoC5/EZI2C.c **** * Reentrant:
 381:.\Generated_Source\PSoC5/EZI2C.c **** *  No.
 382:.\Generated_Source\PSoC5/EZI2C.c **** *
 383:.\Generated_Source\PSoC5/EZI2C.c **** *******************************************************************************/
 384:.\Generated_Source\PSoC5/EZI2C.c **** uint8 EZI2C_GetActivity(void) 
 385:.\Generated_Source\PSoC5/EZI2C.c **** {
 529              		.loc 1 385 0
 530              		.cfi_startproc
 531              		@ args = 0, pretend = 0, frame = 0
 532              		@ frame_needed = 0, uses_anonymous_args = 0
 533              		@ link register save eliminated.
 534 0000 10B4     		push	{r4}
 535              		.cfi_def_cfa_offset 4
 536              		.cfi_offset 4, -4
 386:.\Generated_Source\PSoC5/EZI2C.c ****     uint8 tmpStatus;
 387:.\Generated_Source\PSoC5/EZI2C.c **** 
 388:.\Generated_Source\PSoC5/EZI2C.c ****     EZI2C_DisableInt(); /* Lock from component interrupt */
 537              		.loc 1 388 0
 538 0002 084B     		ldr	r3, .L27
 389:.\Generated_Source\PSoC5/EZI2C.c **** 
 390:.\Generated_Source\PSoC5/EZI2C.c ****     tmpStatus = EZI2C_curStatus;
 539              		.loc 1 390 0
 540 0004 084A     		ldr	r2, .L27+4
 388:.\Generated_Source\PSoC5/EZI2C.c **** 
 541              		.loc 1 388 0
 542 0006 4FF40041 		mov	r1, #32768
 543 000a 1960     		str	r1, [r3]
 544              		.loc 1 390 0
 545 000c 1078     		ldrb	r0, [r2]	@ zero_extendqisi2
 546              	.LVL15:
 391:.\Generated_Source\PSoC5/EZI2C.c ****     /* Clear status bits. Do not touch busy status */
 392:.\Generated_Source\PSoC5/EZI2C.c ****     EZI2C_curStatus &= EZI2C_STATUS_BUSY;
 547              		.loc 1 392 0
 548 000e 1378     		ldrb	r3, [r2]	@ zero_extendqisi2
ARM GAS  C:\Users\JOSEAN~1\AppData\Local\Temp\cc5AOud0.s 			page 19


 393:.\Generated_Source\PSoC5/EZI2C.c **** 
 394:.\Generated_Source\PSoC5/EZI2C.c ****     EZI2C_EnableInt(); /* Release lock */
 549              		.loc 1 394 0
 550 0010 064C     		ldr	r4, .L27+8
 392:.\Generated_Source\PSoC5/EZI2C.c **** 
 551              		.loc 1 392 0
 552 0012 03F01003 		and	r3, r3, #16
 553 0016 DBB2     		uxtb	r3, r3
 554 0018 1370     		strb	r3, [r2]
 555              		.loc 1 394 0
 556 001a 2160     		str	r1, [r4]
 395:.\Generated_Source\PSoC5/EZI2C.c **** 
 396:.\Generated_Source\PSoC5/EZI2C.c ****     return (tmpStatus);
 397:.\Generated_Source\PSoC5/EZI2C.c **** }
 557              		.loc 1 397 0
 558 001c 5DF8044B 		ldr	r4, [sp], #4
 559              		.cfi_restore 4
 560              		.cfi_def_cfa_offset 0
 561 0020 7047     		bx	lr
 562              	.L28:
 563 0022 00BF     		.align	2
 564              	.L27:
 565 0024 80E100E0 		.word	-536813184
 566 0028 00000000 		.word	EZI2C_curStatus
 567 002c 00E100E0 		.word	-536813312
 568              		.cfi_endproc
 569              	.LFE6:
 570              		.size	EZI2C_GetActivity, .-EZI2C_GetActivity
 571              		.section	.text.EZI2C_SetBuffer1,"ax",%progbits
 572              		.align	2
 573              		.global	EZI2C_SetBuffer1
 574              		.thumb
 575              		.thumb_func
 576              		.type	EZI2C_SetBuffer1, %function
 577              	EZI2C_SetBuffer1:
 578              	.LFB7:
 398:.\Generated_Source\PSoC5/EZI2C.c **** 
 399:.\Generated_Source\PSoC5/EZI2C.c **** 
 400:.\Generated_Source\PSoC5/EZI2C.c **** /*******************************************************************************
 401:.\Generated_Source\PSoC5/EZI2C.c **** * Function Name: EZI2C_SetBuffer1
 402:.\Generated_Source\PSoC5/EZI2C.c **** ********************************************************************************
 403:.\Generated_Source\PSoC5/EZI2C.c **** *
 404:.\Generated_Source\PSoC5/EZI2C.c **** * Summary:
 405:.\Generated_Source\PSoC5/EZI2C.c **** *  Sets up the data buffer to be exposed to the master on a primary slave
 406:.\Generated_Source\PSoC5/EZI2C.c **** *  address request.
 407:.\Generated_Source\PSoC5/EZI2C.c **** *
 408:.\Generated_Source\PSoC5/EZI2C.c **** * Parameters:
 409:.\Generated_Source\PSoC5/EZI2C.c **** *  bufSize:    Size of the buffer in bytes.
 410:.\Generated_Source\PSoC5/EZI2C.c **** *  rwBoundary: Number of data bytes starting from the beginning of the buffer
 411:.\Generated_Source\PSoC5/EZI2C.c **** *              with read and write access. Data bytes located at offset
 412:.\Generated_Source\PSoC5/EZI2C.c **** *              rwBoundary or greater are read only.
 413:.\Generated_Source\PSoC5/EZI2C.c **** *              This value must be less than or equal to the buffer size.
 414:.\Generated_Source\PSoC5/EZI2C.c **** *  dataPtr:    Pointer to the data buffer.
 415:.\Generated_Source\PSoC5/EZI2C.c **** *
 416:.\Generated_Source\PSoC5/EZI2C.c **** * Return:
 417:.\Generated_Source\PSoC5/EZI2C.c **** *  None.
 418:.\Generated_Source\PSoC5/EZI2C.c **** *
ARM GAS  C:\Users\JOSEAN~1\AppData\Local\Temp\cc5AOud0.s 			page 20


 419:.\Generated_Source\PSoC5/EZI2C.c **** * Global variables:
 420:.\Generated_Source\PSoC5/EZI2C.c **** *  EZI2C_dataPtrS1 - Stores the pointer to the data exposed to an I2C
 421:.\Generated_Source\PSoC5/EZI2C.c **** *  master for the first slave address, is modified with the the new pointer to    the    ?? no sens
 422:.\Generated_Source\PSoC5/EZI2C.c **** *  data passed by the function parameter.
 423:.\Generated_Source\PSoC5/EZI2C.c **** *
 424:.\Generated_Source\PSoC5/EZI2C.c **** *  EZI2C_rwOffsetS1 - Stores an offset for read and write operations, is
 425:.\Generated_Source\PSoC5/EZI2C.c **** *  modified at each write sequence of the first slave address is?? reset.   ?
 426:.\Generated_Source\PSoC5/EZI2C.c **** *
 427:.\Generated_Source\PSoC5/EZI2C.c **** *  EZI2C_rwIndexS1 - Stores the pointer to the next value to be read or
 428:.\Generated_Source\PSoC5/EZI2C.c **** *  written for the first slave address is?? set to 0.  ??
 429:.\Generated_Source\PSoC5/EZI2C.c **** *
 430:.\Generated_Source\PSoC5/EZI2C.c **** * Reentrant:
 431:.\Generated_Source\PSoC5/EZI2C.c **** *  No.
 432:.\Generated_Source\PSoC5/EZI2C.c **** *
 433:.\Generated_Source\PSoC5/EZI2C.c **** *******************************************************************************/
 434:.\Generated_Source\PSoC5/EZI2C.c **** void EZI2C_SetBuffer1(uint16 bufSize, uint16 rwBoundary, volatile uint8 * dataPtr) 
 435:.\Generated_Source\PSoC5/EZI2C.c **** {
 579              		.loc 1 435 0
 580              		.cfi_startproc
 581              		@ args = 0, pretend = 0, frame = 0
 582              		@ frame_needed = 0, uses_anonymous_args = 0
 583              		@ link register save eliminated.
 584              	.LVL16:
 436:.\Generated_Source\PSoC5/EZI2C.c ****     EZI2C_DisableInt(); /* Lock from component interrupt */
 585              		.loc 1 436 0
 586 0000 0B4B     		ldr	r3, .L35
 435:.\Generated_Source\PSoC5/EZI2C.c ****     EZI2C_DisableInt(); /* Lock from component interrupt */
 587              		.loc 1 435 0
 588 0002 30B4     		push	{r4, r5}
 589              		.cfi_def_cfa_offset 8
 590              		.cfi_offset 4, -8
 591              		.cfi_offset 5, -4
 592              		.loc 1 436 0
 593 0004 4FF40044 		mov	r4, #32768
 594 0008 1C60     		str	r4, [r3]
 437:.\Generated_Source\PSoC5/EZI2C.c **** 
 438:.\Generated_Source\PSoC5/EZI2C.c ****     if (NULL != dataPtr)
 595              		.loc 1 438 0
 596 000a 2AB1     		cbz	r2, .L30
 439:.\Generated_Source\PSoC5/EZI2C.c ****     {
 440:.\Generated_Source\PSoC5/EZI2C.c ****         /* Configure buffer 1 */
 441:.\Generated_Source\PSoC5/EZI2C.c ****         EZI2C_dataPtrS1   = dataPtr;
 442:.\Generated_Source\PSoC5/EZI2C.c ****         EZI2C_bufSizeS1   = bufSize;
 597              		.loc 1 442 0
 598 000c 094D     		ldr	r5, .L35+4
 441:.\Generated_Source\PSoC5/EZI2C.c ****         EZI2C_bufSizeS1   = bufSize;
 599              		.loc 1 441 0
 600 000e 0A4C     		ldr	r4, .L35+8
 443:.\Generated_Source\PSoC5/EZI2C.c ****         EZI2C_wrProtectS1 = rwBoundary;
 601              		.loc 1 443 0
 602 0010 0A4B     		ldr	r3, .L35+12
 442:.\Generated_Source\PSoC5/EZI2C.c ****         EZI2C_wrProtectS1 = rwBoundary;
 603              		.loc 1 442 0
 604 0012 2880     		strh	r0, [r5]	@ movhi
 441:.\Generated_Source\PSoC5/EZI2C.c ****         EZI2C_bufSizeS1   = bufSize;
 605              		.loc 1 441 0
 606 0014 2260     		str	r2, [r4]
ARM GAS  C:\Users\JOSEAN~1\AppData\Local\Temp\cc5AOud0.s 			page 21


 607              		.loc 1 443 0
 608 0016 1980     		strh	r1, [r3]	@ movhi
 609              	.L30:
 444:.\Generated_Source\PSoC5/EZI2C.c ****     }
 445:.\Generated_Source\PSoC5/EZI2C.c **** 
 446:.\Generated_Source\PSoC5/EZI2C.c ****     /* Clear buffer offset and index */
 447:.\Generated_Source\PSoC5/EZI2C.c ****     EZI2C_rwOffsetS1 = 0u;
 610              		.loc 1 447 0
 611 0018 094C     		ldr	r4, .L35+16
 448:.\Generated_Source\PSoC5/EZI2C.c ****     EZI2C_rwIndexS1  = 0u;
 612              		.loc 1 448 0
 613 001a 0A48     		ldr	r0, .L35+20
 614              	.LVL17:
 447:.\Generated_Source\PSoC5/EZI2C.c ****     EZI2C_rwIndexS1  = 0u;
 615              		.loc 1 447 0
 616 001c 0023     		movs	r3, #0
 449:.\Generated_Source\PSoC5/EZI2C.c **** 
 450:.\Generated_Source\PSoC5/EZI2C.c ****     EZI2C_EnableInt(); /* Release lock */
 617              		.loc 1 450 0
 618 001e 0A4A     		ldr	r2, .L35+24
 619              	.LVL18:
 447:.\Generated_Source\PSoC5/EZI2C.c ****     EZI2C_rwIndexS1  = 0u;
 620              		.loc 1 447 0
 621 0020 2370     		strb	r3, [r4]
 622              		.loc 1 450 0
 623 0022 4FF40041 		mov	r1, #32768
 624              	.LVL19:
 448:.\Generated_Source\PSoC5/EZI2C.c **** 
 625              		.loc 1 448 0
 626 0026 0370     		strb	r3, [r0]
 451:.\Generated_Source\PSoC5/EZI2C.c **** }
 627              		.loc 1 451 0
 628 0028 30BC     		pop	{r4, r5}
 629              		.cfi_restore 5
 630              		.cfi_restore 4
 631              		.cfi_def_cfa_offset 0
 450:.\Generated_Source\PSoC5/EZI2C.c **** }
 632              		.loc 1 450 0
 633 002a 1160     		str	r1, [r2]
 634              		.loc 1 451 0
 635 002c 7047     		bx	lr
 636              	.L36:
 637 002e 00BF     		.align	2
 638              	.L35:
 639 0030 80E100E0 		.word	-536813184
 640 0034 00000000 		.word	EZI2C_bufSizeS1
 641 0038 00000000 		.word	EZI2C_dataPtrS1
 642 003c 00000000 		.word	EZI2C_wrProtectS1
 643 0040 00000000 		.word	EZI2C_rwOffsetS1
 644 0044 00000000 		.word	EZI2C_rwIndexS1
 645 0048 00E100E0 		.word	-536813312
 646              		.cfi_endproc
 647              	.LFE7:
 648              		.size	EZI2C_SetBuffer1, .-EZI2C_SetBuffer1
 649              		.comm	EZI2C_rwIndexS1,1,1
 650              		.comm	EZI2C_rwOffsetS1,1,1
 651              		.comm	EZI2C_wrProtectS1,2,2
ARM GAS  C:\Users\JOSEAN~1\AppData\Local\Temp\cc5AOud0.s 			page 22


 652              		.comm	EZI2C_bufSizeS1,2,2
 653              		.comm	EZI2C_dataPtrS1,4,4
 654              		.comm	EZI2C_curState,1,1
 655              		.comm	EZI2C_curStatus,1,1
 656              		.global	EZI2C_initVar
 657              		.bss
 658              		.set	.LANCHOR0,. + 0
 659              		.type	EZI2C_initVar, %object
 660              		.size	EZI2C_initVar, 1
 661              	EZI2C_initVar:
 662 0000 00       		.space	1
 663              		.text
 664              	.Letext0:
 665              		.file 2 ".\\Generated_Source\\PSoC5\\cytypes.h"
 666              		.file 3 ".\\Generated_Source\\PSoC5\\EZI2C.h"
 667              		.file 4 ".\\Generated_Source\\PSoC5\\EZI2C_PVT.h"
 668              		.file 5 ".\\Generated_Source\\PSoC5\\CyLib.h"