ARM GAS  C:\Users\JOSEAN~1\AppData\Local\Temp\ccNJk6sj.s 			page 1


   1              		.syntax unified
   2              		.cpu cortex-m3
   3              		.fpu softvfp
   4              		.eabi_attribute 20, 1
   5              		.eabi_attribute 21, 1
   6              		.eabi_attribute 23, 3
   7              		.eabi_attribute 24, 1
   8              		.eabi_attribute 25, 1
   9              		.eabi_attribute 26, 1
  10              		.eabi_attribute 30, 6
  11              		.eabi_attribute 34, 1
  12              		.eabi_attribute 18, 4
  13              		.thumb
  14              		.file	"main.c"
  15              		.text
  16              	.Ltext0:
  17              		.cfi_sections	.debug_frame
  18              		.section	.rodata
  19              		.align	2
  20              	.LC0:
  21 0000 486F6C61 		.ascii	"Hola Amigo!\000"
  21      20416D69 
  21      676F2100 
  22              		.section	.text.main,"ax",%progbits
  23              		.align	2
  24              		.global	main
  25              		.thumb
  26              		.thumb_func
  27              		.type	main, %function
  28              	main:
  29              	.LFB63:
  30              		.file 1 ".\\main.c"
   1:.\main.c      **** /*******************************************************************************
   2:.\main.c      **** * File Name: main.c
   3:.\main.c      **** *
   4:.\main.c      **** * Version: 2.1
   5:.\main.c      **** *
   6:.\main.c      **** * Description:
   7:.\main.c      **** *  This project demonstrates the UART reception mechanism. 
   8:.\main.c      **** *  Data typed on the hyperterminal is sent through serial port and displayed
   9:.\main.c      **** *  on the LCD.
  10:.\main.c      **** *
  11:.\main.c      **** ********************************************************************************
  12:.\main.c      **** * Copyright 2012, Cypress Semiconductor Corporation. All rights reserved.
  13:.\main.c      **** * This software is owned by Cypress Semiconductor Corporation and is protected
  14:.\main.c      **** * by and subject to worldwide patent and copyright laws and treaties.
  15:.\main.c      **** * Therefore, you may use this software only as provided in the license agreement
  16:.\main.c      **** * accompanying the software package from which you obtained this software.
  17:.\main.c      **** * CYPRESS AND ITS SUPPLIERS MAKE NO WARRANTY OF ANY KIND, EXPRESS OR IMPLIED,
  18:.\main.c      **** * WITH REGARD TO THIS SOFTWARE, INCLUDING, BUT NOT LIMITED TO, NONINFRINGEMENT,
  19:.\main.c      **** * IMPLIED WARRANTIES OF MERCHANTABILITY AND FITNESS FOR A PARTICULAR PURPOSE.
  20:.\main.c      **** *******************************************************************************/
  21:.\main.c      **** 
  22:.\main.c      **** #include <project.h>
  23:.\main.c      **** 
  24:.\main.c      **** #define LCD_NUM_COLUMNS (16u)
  25:.\main.c      **** 
ARM GAS  C:\Users\JOSEAN~1\AppData\Local\Temp\ccNJk6sj.s 			page 2


  26:.\main.c      **** 
  27:.\main.c      **** int main()
  28:.\main.c      **** {   
  31              		.loc 1 28 0
  32              		.cfi_startproc
  33              		@ args = 0, pretend = 0, frame = 8
  34              		@ frame_needed = 1, uses_anonymous_args = 0
  35 0000 80B5     		push	{r7, lr}
  36              		.cfi_def_cfa_offset 8
  37              		.cfi_offset 7, -8
  38              		.cfi_offset 14, -4
  39 0002 82B0     		sub	sp, sp, #8
  40              		.cfi_def_cfa_offset 16
  41 0004 00AF     		add	r7, sp, #0
  42              		.cfi_def_cfa_register 7
  29:.\main.c      ****     char8 ch;       /* Data received from the Serial port */
  30:.\main.c      ****     uint8 count = 0u;
  43              		.loc 1 30 0
  44 0006 0023     		movs	r3, #0
  45 0008 FB71     		strb	r3, [r7, #7]
  31:.\main.c      ****     uint8 pos = 0u;
  46              		.loc 1 31 0
  47 000a 0023     		movs	r3, #0
  48 000c BB71     		strb	r3, [r7, #6]
  32:.\main.c      **** 
  33:.\main.c      ****     CyGlobalIntEnable; /* Enable all interrupts by the processor. */
  49              		.loc 1 33 0
  50              	@ 33 ".\main.c" 1
  51 000e 62B6     		CPSIE   i
  52              	@ 0 "" 2
  53              		.thumb
  54              	.L5:
  55              	.LBB2:
  34:.\main.c      **** 
  35:.\main.c      **** 
  36:.\main.c      ****     while(1)
  37:.\main.c      ****     {
  38:.\main.c      ****         /* Check the UART status */
  39:.\main.c      ****         while(Rx_1_Read()==1){
  56              		.loc 1 39 0 discriminator 2
  57 0010 00BF     		nop
  58 0012 FFF7FEFF 		bl	Rx_1_Read
  59 0016 0346     		mov	r3, r0
  60 0018 012B     		cmp	r3, #1
  61 001a 03D1     		bne	.L6
  40:.\main.c      ****         LCD_Char_1_PrintString("Hola Amigo!");
  62              		.loc 1 40 0
  63 001c 0248     		ldr	r0, .L7
  64 001e FFF7FEFF 		bl	LCD_Char_1_PrintString
  65              	.L3:
  41:.\main.c      ****         while(1);
  66              		.loc 1 41 0 discriminator 1
  67 0022 FEE7     		b	.L3
  68              	.L6:
  69              	.LBE2:
  42:.\main.c      ****     }
  43:.\main.c      ****     }
ARM GAS  C:\Users\JOSEAN~1\AppData\Local\Temp\ccNJk6sj.s 			page 3


  70              		.loc 1 43 0
  71 0024 F4E7     		b	.L5
  72              	.L8:
  73 0026 00BF     		.align	2
  74              	.L7:
  75 0028 00000000 		.word	.LC0
  76              		.cfi_endproc
  77              	.LFE63:
  78              		.size	main, .-main
  79              		.text
  80              	.Letext0:
  81              		.file 2 "c:\\program files (x86)\\cypress\\psoc creator\\3.3\\psoc creator\\import\\gnu\\arm\\4.9.
  82              		.file 3 "c:\\program files (x86)\\cypress\\psoc creator\\3.3\\psoc creator\\import\\gnu\\arm\\4.9.
  83              		.file 4 "Generated_Source\\PSoC5/cytypes.h"
  84              		.file 5 "Generated_Source\\PSoC5/core_cm3.h"